   1              		.syntax unified
   2              		.cpu cortex-m3
   3              		.fpu softvfp
   4              		.eabi_attribute 20, 1
   5              		.eabi_attribute 21, 1
   6              		.eabi_attribute 23, 3
   7              		.eabi_attribute 24, 1
   8              		.eabi_attribute 25, 1
   9              		.eabi_attribute 26, 1
  10              		.eabi_attribute 30, 6
  11              		.eabi_attribute 34, 1
  12              		.eabi_attribute 18, 4
  13              		.thumb
  14              		.file	"main.c"
  15              		.text
  16              	.Ltext0:
  17              		.cfi_sections	.debug_frame
  18              		.section	.text.main,"ax",%progbits
  19              		.align	2
  20              		.global	main
  21              		.thumb
  22              		.thumb_func
  24              	main:
  25              	.LFB102:
  26              		.file 1 "../src/main.c"
   1:../src/main.c **** //
   2:../src/main.c **** // Print a greeting message on standard output and exit.
   3:../src/main.c **** //
   4:../src/main.c **** // On embedded platforms this might require semi-hosting or similar.
   5:../src/main.c **** //
   6:../src/main.c **** // For example, for toolchains derived from GNU Tools for Embedded,
   7:../src/main.c **** // to enable semi-hosting, the following was added to the linker:
   8:../src/main.c **** //
   9:../src/main.c **** // --specs=rdimon.specs -Wl,--start-group -lgcc -lc -lc -lm -lrdimon -Wl,--end-group
  10:../src/main.c **** // -T../debug-in-microsemi-smartfusion2-envm.ld
  11:../src/main.c **** // -T../debug-in-microsemi-smartfusion2-envm.ld
  12:../src/main.c **** // Adjust it for other toolchains.
  13:../src/main.c **** // use define (__DEBUG_CONSOLE__)
  14:../src/main.c **** 
  15:../src/main.c **** #include "config.h"
  16:../src/main.c **** 
  17:../src/main.c **** 
  18:../src/main.c **** int main()
  19:../src/main.c **** {
  27              		.loc 1 19 0
  28              		.cfi_startproc
  29              		@ args = 0, pretend = 0, frame = 8
  30              		@ frame_needed = 1, uses_anonymous_args = 0
  31 0000 80B5     		push	{r7, lr}
  32              		.cfi_def_cfa_offset 8
  33              		.cfi_offset 7, -8
  34              		.cfi_offset 14, -4
  35 0002 82B0     		sub	sp, sp, #8
  36              		.cfi_def_cfa_offset 16
  37 0004 00AF     		add	r7, sp, #0
  38              		.cfi_def_cfa_register 7
  20:../src/main.c **** 	int nRet = 0;
  39              		.loc 1 20 0
  40 0006 0023     		movs	r3, #0
  41 0008 7B60     		str	r3, [r7, #4]
  21:../src/main.c **** 
  22:../src/main.c **** 	init_system();
  42              		.loc 1 22 0
  43 000a FFF7FEFF 		bl	init_system
  23:../src/main.c **** 
  24:../src/main.c **** 	post_update_ready();
  44              		.loc 1 24 0
  45 000e FFF7FEFF 		bl	post_update_ready
  46              	.L2:
  25:../src/main.c **** 
  26:../src/main.c **** 	while(1)
  27:../src/main.c **** 	{
  28:../src/main.c **** 		nRet = processFwUpdate();
  47              		.loc 1 28 0 discriminator 1
  48 0012 FFF7FEFF 		bl	processFwUpdate
  49 0016 7860     		str	r0, [r7, #4]
  29:../src/main.c **** 	}
  50              		.loc 1 29 0 discriminator 1
  51 0018 FBE7     		b	.L2
  52              		.cfi_endproc
  53              	.LFE102:
  55 001a 00BF     		.text
  56              	.Letext0:
  57              		.file 2 "c:\\microsemi\\softconsole_v4.0\\arm-none-eabi-gcc\\arm-none-eabi\\include\\machine\\_def
  58              		.file 3 "c:\\microsemi\\softconsole_v4.0\\arm-none-eabi-gcc\\arm-none-eabi\\include\\sys\\_stdint.
  59              		.file 4 "C:\\Microsemi\\SoftConsole_v4.0\\CMSIS\\V4.3\\Include/core_cm3.h"