   1              		.syntax unified
   2              		.cpu cortex-m3
   3              		.fpu softvfp
   4              		.eabi_attribute 20, 1
   5              		.eabi_attribute 21, 1
   6              		.eabi_attribute 23, 3
   7              		.eabi_attribute 24, 1
   8              		.eabi_attribute 25, 1
   9              		.eabi_attribute 26, 1
  10              		.eabi_attribute 30, 6
  11              		.eabi_attribute 34, 1
  12              		.eabi_attribute 18, 4
  13              		.thumb
  14              		.file	"util.c"
  15              		.text
  16              	.Ltext0:
  17              		.cfi_sections	.debug_frame
  18              		.section	.text.delay_us,"ax",%progbits
  19              		.align	2
  20              		.global	delay_us
  21              		.thumb
  22              		.thumb_func
  24              	delay_us:
  25              	.LFB102:
  26              		.file 1 "../src/util.c"
   1:../src/util.c **** #include "config.h"
   2:../src/util.c **** 
   3:../src/util.c **** 
   4:../src/util.c **** // 1uS
   5:../src/util.c **** void delay_us(unsigned int time)
   6:../src/util.c **** {
  27              		.loc 1 6 0
  28              		.cfi_startproc
  29              		@ args = 0, pretend = 0, frame = 16
  30              		@ frame_needed = 1, uses_anonymous_args = 0
  31              		@ link register save eliminated.
  32 0000 80B4     		push	{r7}
  33              		.cfi_def_cfa_offset 4
  34              		.cfi_offset 7, -4
  35 0002 85B0     		sub	sp, sp, #20
  36              		.cfi_def_cfa_offset 24
  37 0004 00AF     		add	r7, sp, #0
  38              		.cfi_def_cfa_register 7
  39 0006 7860     		str	r0, [r7, #4]
   7:../src/util.c **** 	uint32_t i =0 , j = 0;
  40              		.loc 1 7 0
  41 0008 0023     		movs	r3, #0
  42 000a FB60     		str	r3, [r7, #12]
  43 000c 0023     		movs	r3, #0
  44 000e BB60     		str	r3, [r7, #8]
   8:../src/util.c **** 	for(j=0 ; j<time ; j++)
  45              		.loc 1 8 0
  46 0010 0023     		movs	r3, #0
  47 0012 BB60     		str	r3, [r7, #8]
  48 0014 0CE0     		b	.L2
  49              	.L5:
   9:../src/util.c **** 	{
  10:../src/util.c **** 		for(i=0; i<2; i++) {
  50              		.loc 1 10 0
  51 0016 0023     		movs	r3, #0
  52 0018 FB60     		str	r3, [r7, #12]
  53 001a 03E0     		b	.L3
  54              	.L4:
  11:../src/util.c **** 			__asm volatile ("nop");
  55              		.loc 1 11 0 discriminator 3
  56              	@ 11 "../src/util.c" 1
  57 001c 00BF     		nop
  58              	@ 0 "" 2
  10:../src/util.c **** 			__asm volatile ("nop");
  59              		.loc 1 10 0 discriminator 3
  60              		.thumb
  61 001e FB68     		ldr	r3, [r7, #12]
  62 0020 0133     		adds	r3, r3, #1
  63 0022 FB60     		str	r3, [r7, #12]
  64              	.L3:
  10:../src/util.c **** 			__asm volatile ("nop");
  65              		.loc 1 10 0 is_stmt 0 discriminator 1
  66 0024 FB68     		ldr	r3, [r7, #12]
  67 0026 012B     		cmp	r3, #1
  68 0028 F8D9     		bls	.L4
   8:../src/util.c **** 	{
  69              		.loc 1 8 0 is_stmt 1 discriminator 2
  70 002a BB68     		ldr	r3, [r7, #8]
  71 002c 0133     		adds	r3, r3, #1
  72 002e BB60     		str	r3, [r7, #8]
  73              	.L2:
   8:../src/util.c **** 	{
  74              		.loc 1 8 0 is_stmt 0 discriminator 1
  75 0030 BA68     		ldr	r2, [r7, #8]
  76 0032 7B68     		ldr	r3, [r7, #4]
  77 0034 9A42     		cmp	r2, r3
  78 0036 EED3     		bcc	.L5
  12:../src/util.c **** 		}
  13:../src/util.c **** 	}
  14:../src/util.c **** }
  79              		.loc 1 14 0 is_stmt 1
  80 0038 1437     		adds	r7, r7, #20
  81              		.cfi_def_cfa_offset 4
  82 003a BD46     		mov	sp, r7
  83              		.cfi_def_cfa_register 13
  84              		@ sp needed
  85 003c 5DF8047B 		ldr	r7, [sp], #4
  86              		.cfi_restore 7
  87              		.cfi_def_cfa_offset 0
  88 0040 7047     		bx	lr
  89              		.cfi_endproc
  90              	.LFE102:
  92 0042 00BF     		.section	.text.delay_ms,"ax",%progbits
  93              		.align	2
  94              		.global	delay_ms
  95              		.thumb
  96              		.thumb_func
  98              	delay_ms:
  99              	.LFB103:
  15:../src/util.c **** 
  16:../src/util.c **** void delay_ms(unsigned int time)
  17:../src/util.c **** {
 100              		.loc 1 17 0
 101              		.cfi_startproc
 102              		@ args = 0, pretend = 0, frame = 16
 103              		@ frame_needed = 1, uses_anonymous_args = 0
 104 0000 80B5     		push	{r7, lr}
 105              		.cfi_def_cfa_offset 8
 106              		.cfi_offset 7, -8
 107              		.cfi_offset 14, -4
 108 0002 84B0     		sub	sp, sp, #16
 109              		.cfi_def_cfa_offset 24
 110 0004 00AF     		add	r7, sp, #0
 111              		.cfi_def_cfa_register 7
 112 0006 7860     		str	r0, [r7, #4]
  18:../src/util.c **** 	uint32_t i;
  19:../src/util.c **** 	for(i=0;i<time;i++)
 113              		.loc 1 19 0
 114 0008 0023     		movs	r3, #0
 115 000a FB60     		str	r3, [r7, #12]
 116 000c 06E0     		b	.L7
 117              	.L8:
  20:../src/util.c **** 	{
  21:../src/util.c **** 		delay_us(1000);		// 1uS
 118              		.loc 1 21 0 discriminator 3
 119 000e 4FF47A70 		mov	r0, #1000
 120 0012 FFF7FEFF 		bl	delay_us
  19:../src/util.c **** 	{
 121              		.loc 1 19 0 discriminator 3
 122 0016 FB68     		ldr	r3, [r7, #12]
 123 0018 0133     		adds	r3, r3, #1
 124 001a FB60     		str	r3, [r7, #12]
 125              	.L7:
  19:../src/util.c **** 	{
 126              		.loc 1 19 0 is_stmt 0 discriminator 1
 127 001c FA68     		ldr	r2, [r7, #12]
 128 001e 7B68     		ldr	r3, [r7, #4]
 129 0020 9A42     		cmp	r2, r3
 130 0022 F4D3     		bcc	.L8
  22:../src/util.c **** 	}
  23:../src/util.c **** }
 131              		.loc 1 23 0 is_stmt 1
 132 0024 1037     		adds	r7, r7, #16
 133              		.cfi_def_cfa_offset 8
 134 0026 BD46     		mov	sp, r7
 135              		.cfi_def_cfa_register 13
 136              		@ sp needed
 137 0028 80BD     		pop	{r7, pc}
 138              		.cfi_endproc
 139              	.LFE103:
 141 002a 00BF     		.section	.text.AsciiToHex,"ax",%progbits
 142              		.align	2
 143              		.global	AsciiToHex
 144              		.thumb
 145              		.thumb_func
 147              	AsciiToHex:
 148              	.LFB104:
  24:../src/util.c **** 
  25:../src/util.c **** 
  26:../src/util.c **** int AsciiToHex(char c)
  27:../src/util.c **** {
 149              		.loc 1 27 0
 150              		.cfi_startproc
 151              		@ args = 0, pretend = 0, frame = 16
 152              		@ frame_needed = 1, uses_anonymous_args = 0
 153              		@ link register save eliminated.
 154 0000 80B4     		push	{r7}
 155              		.cfi_def_cfa_offset 4
 156              		.cfi_offset 7, -4
 157 0002 85B0     		sub	sp, sp, #20
 158              		.cfi_def_cfa_offset 24
 159 0004 00AF     		add	r7, sp, #0
 160              		.cfi_def_cfa_register 7
 161 0006 0346     		mov	r3, r0
 162 0008 FB71     		strb	r3, [r7, #7]
 163              	.LBB2:
  28:../src/util.c **** 	int num = toupper(c);
 164              		.loc 1 28 0
 165 000a FB79     		ldrb	r3, [r7, #7]
 166 000c FB73     		strb	r3, [r7, #15]
 167 000e 164B     		ldr	r3, .L15
 168 0010 1A68     		ldr	r2, [r3]
 169 0012 97F90F30 		ldrsb	r3, [r7, #15]
 170 0016 0133     		adds	r3, r3, #1
 171 0018 1344     		add	r3, r3, r2
 172 001a 1B78     		ldrb	r3, [r3]	@ zero_extendqisi2
 173 001c DBB2     		uxtb	r3, r3
 174 001e 03F00303 		and	r3, r3, #3
 175 0022 022B     		cmp	r3, #2
 176 0024 03D1     		bne	.L10
 177              		.loc 1 28 0 is_stmt 0 discriminator 1
 178 0026 97F90F30 		ldrsb	r3, [r7, #15]
 179 002a 203B     		subs	r3, r3, #32
 180 002c 01E0     		b	.L11
 181              	.L10:
 182              		.loc 1 28 0 discriminator 2
 183 002e 97F90F30 		ldrsb	r3, [r7, #15]
 184              	.L11:
 185              	.LBE2:
 186              		.loc 1 28 0 discriminator 4
 187 0032 BB60     		str	r3, [r7, #8]
  29:../src/util.c **** 	if(num >= 0x30 && num <= 0x39)
 188              		.loc 1 29 0 is_stmt 1 discriminator 4
 189 0034 BB68     		ldr	r3, [r7, #8]
 190 0036 2F2B     		cmp	r3, #47
 191 0038 05DD     		ble	.L12
 192              		.loc 1 29 0 is_stmt 0 discriminator 1
 193 003a BB68     		ldr	r3, [r7, #8]
 194 003c 392B     		cmp	r3, #57
 195 003e 02DC     		bgt	.L12
  30:../src/util.c **** 	{
  31:../src/util.c **** 		return num - 0x30;
 196              		.loc 1 31 0 is_stmt 1
 197 0040 BB68     		ldr	r3, [r7, #8]
 198 0042 303B     		subs	r3, r3, #48
 199 0044 09E0     		b	.L13
 200              	.L12:
  32:../src/util.c **** 	}
  33:../src/util.c **** 	if(num >= 'A' && num <= 'F')
 201              		.loc 1 33 0
 202 0046 BB68     		ldr	r3, [r7, #8]
 203 0048 402B     		cmp	r3, #64
 204 004a 05DD     		ble	.L14
 205              		.loc 1 33 0 is_stmt 0 discriminator 1
 206 004c BB68     		ldr	r3, [r7, #8]
 207 004e 462B     		cmp	r3, #70
 208 0050 02DC     		bgt	.L14
  34:../src/util.c **** 	{
  35:../src/util.c **** 		return num - 'A';
 209              		.loc 1 35 0 is_stmt 1
 210 0052 BB68     		ldr	r3, [r7, #8]
 211 0054 413B     		subs	r3, r3, #65
 212 0056 00E0     		b	.L13
 213              	.L14:
  36:../src/util.c **** 	}
  37:../src/util.c **** 	return num;
 214              		.loc 1 37 0
 215 0058 BB68     		ldr	r3, [r7, #8]
 216              	.L13:
  38:../src/util.c **** }
 217              		.loc 1 38 0
 218 005a 1846     		mov	r0, r3
 219 005c 1437     		adds	r7, r7, #20
 220              		.cfi_def_cfa_offset 4
 221 005e BD46     		mov	sp, r7
 222              		.cfi_def_cfa_register 13
 223              		@ sp needed
 224 0060 5DF8047B 		ldr	r7, [sp], #4
 225              		.cfi_restore 7
 226              		.cfi_def_cfa_offset 0
 227 0064 7047     		bx	lr
 228              	.L16:
 229 0066 00BF     		.align	2
 230              	.L15:
 231 0068 00000000 		.word	__ctype_ptr__
 232              		.cfi_endproc
 233              	.LFE104:
 235              		.section	.text.HexStringToByte,"ax",%progbits
 236              		.align	2
 237              		.global	HexStringToByte
 238              		.thumb
 239              		.thumb_func
 241              	HexStringToByte:
 242              	.LFB105:
  39:../src/util.c **** 
  40:../src/util.c **** char HexStringToByte(short value )
  41:../src/util.c **** {
 243              		.loc 1 41 0
 244              		.cfi_startproc
 245              		@ args = 0, pretend = 0, frame = 16
 246              		@ frame_needed = 1, uses_anonymous_args = 0
 247 0000 80B5     		push	{r7, lr}
 248              		.cfi_def_cfa_offset 8
 249              		.cfi_offset 7, -8
 250              		.cfi_offset 14, -4
 251 0002 84B0     		sub	sp, sp, #16
 252              		.cfi_def_cfa_offset 24
 253 0004 00AF     		add	r7, sp, #0
 254              		.cfi_def_cfa_register 7
 255 0006 0346     		mov	r3, r0
 256 0008 FB80     		strh	r3, [r7, #6]	@ movhi
  42:../src/util.c **** 	char lower = AsciiToHex(value & 0xFF);
 257              		.loc 1 42 0
 258 000a FB88     		ldrh	r3, [r7, #6]	@ movhi
 259 000c DBB2     		uxtb	r3, r3
 260 000e 5BB2     		sxtb	r3, r3
 261 0010 1846     		mov	r0, r3
 262 0012 FFF7FEFF 		bl	AsciiToHex
 263 0016 0346     		mov	r3, r0
 264 0018 FB73     		strb	r3, [r7, #15]
  43:../src/util.c **** 	char Upper = AsciiToHex( (value >> 8) & 0xFF);
 265              		.loc 1 43 0
 266 001a B7F90630 		ldrsh	r3, [r7, #6]
 267 001e 1B12     		asrs	r3, r3, #8
 268 0020 9BB2     		uxth	r3, r3
 269 0022 DBB2     		uxtb	r3, r3
 270 0024 5BB2     		sxtb	r3, r3
 271 0026 1846     		mov	r0, r3
 272 0028 FFF7FEFF 		bl	AsciiToHex
 273 002c 0346     		mov	r3, r0
 274 002e BB73     		strb	r3, [r7, #14]
  44:../src/util.c **** 	char nRet = Upper << 4 | lower;
 275              		.loc 1 44 0
 276 0030 97F90E30 		ldrsb	r3, [r7, #14]
 277 0034 1B01     		lsls	r3, r3, #4
 278 0036 DBB2     		uxtb	r3, r3
 279 0038 1A46     		mov	r2, r3
 280 003a FB7B     		ldrb	r3, [r7, #15]
 281 003c 1343     		orrs	r3, r3, r2
 282 003e 7B73     		strb	r3, [r7, #13]
  45:../src/util.c **** 	return nRet;
 283              		.loc 1 45 0
 284 0040 7B7B     		ldrb	r3, [r7, #13]	@ zero_extendqisi2
 285 0042 5BB2     		sxtb	r3, r3
  46:../src/util.c **** }
 286              		.loc 1 46 0
 287 0044 1846     		mov	r0, r3
 288 0046 1037     		adds	r7, r7, #16
 289              		.cfi_def_cfa_offset 8
 290 0048 BD46     		mov	sp, r7
 291              		.cfi_def_cfa_register 13
 292              		@ sp needed
 293 004a 80BD     		pop	{r7, pc}
 294              		.cfi_endproc
 295              	.LFE105:
 297              		.section	.text.HexStringToShort,"ax",%progbits
 298              		.align	2
 299              		.global	HexStringToShort
 300              		.thumb
 301              		.thumb_func
 303              	HexStringToShort:
 304              	.LFB106:
  47:../src/util.c **** 
  48:../src/util.c **** short HexStringToShort(int value)
  49:../src/util.c **** {
 305              		.loc 1 49 0
 306              		.cfi_startproc
 307              		@ args = 0, pretend = 0, frame = 16
 308              		@ frame_needed = 1, uses_anonymous_args = 0
 309 0000 80B5     		push	{r7, lr}
 310              		.cfi_def_cfa_offset 8
 311              		.cfi_offset 7, -8
 312              		.cfi_offset 14, -4
 313 0002 84B0     		sub	sp, sp, #16
 314              		.cfi_def_cfa_offset 24
 315 0004 00AF     		add	r7, sp, #0
 316              		.cfi_def_cfa_register 7
 317 0006 7860     		str	r0, [r7, #4]
  50:../src/util.c **** 	char lower = HexStringToByte(value & 0xFFFF);
 318              		.loc 1 50 0
 319 0008 7B68     		ldr	r3, [r7, #4]
 320 000a 9BB2     		uxth	r3, r3
 321 000c 1BB2     		sxth	r3, r3
 322 000e 1846     		mov	r0, r3
 323 0010 FFF7FEFF 		bl	HexStringToByte
 324 0014 0346     		mov	r3, r0
 325 0016 FB73     		strb	r3, [r7, #15]
  51:../src/util.c **** 	char Upper = HexStringToByte( (value >> 16) & 0xFFFF);
 326              		.loc 1 51 0
 327 0018 7B68     		ldr	r3, [r7, #4]
 328 001a 1B0C     		lsrs	r3, r3, #16
 329 001c 9BB2     		uxth	r3, r3
 330 001e 1BB2     		sxth	r3, r3
 331 0020 1846     		mov	r0, r3
 332 0022 FFF7FEFF 		bl	HexStringToByte
 333 0026 0346     		mov	r3, r0
 334 0028 BB73     		strb	r3, [r7, #14]
  52:../src/util.c **** 	short nRet = Upper << 8 | lower;
 335              		.loc 1 52 0
 336 002a 97F90E30 		ldrsb	r3, [r7, #14]
 337 002e 1B02     		lsls	r3, r3, #8
 338 0030 9AB2     		uxth	r2, r3
 339 0032 97F90F30 		ldrsb	r3, [r7, #15]
 340 0036 9BB2     		uxth	r3, r3
 341 0038 1343     		orrs	r3, r3, r2
 342 003a BB81     		strh	r3, [r7, #12]	@ movhi
  53:../src/util.c **** 	return nRet;
 343              		.loc 1 53 0
 344 003c BB89     		ldrh	r3, [r7, #12]
 345 003e 1BB2     		sxth	r3, r3
  54:../src/util.c **** }
 346              		.loc 1 54 0
 347 0040 1846     		mov	r0, r3
 348 0042 1037     		adds	r7, r7, #16
 349              		.cfi_def_cfa_offset 8
 350 0044 BD46     		mov	sp, r7
 351              		.cfi_def_cfa_register 13
 352              		@ sp needed
 353 0046 80BD     		pop	{r7, pc}
 354              		.cfi_endproc
 355              	.LFE106:
 357              		.text
 358              	.Letext0:
 359              		.file 2 "c:\\microsemi\\softconsole_v4.0\\arm-none-eabi-gcc\\arm-none-eabi\\include\\machine\\_def
 360              		.file 3 "c:\\microsemi\\softconsole_v4.0\\arm-none-eabi-gcc\\arm-none-eabi\\include\\sys\\_stdint.
 361              		.file 4 "c:\\microsemi\\softconsole_v4.0\\arm-none-eabi-gcc\\arm-none-eabi\\include\\ctype.h"
 362              		.file 5 "C:\\Microsemi\\SoftConsole_v4.0\\CMSIS\\V4.3\\Include/core_cm3.h"