   1              		.syntax unified
   2              		.cpu cortex-m3
   3              		.fpu softvfp
   4              		.eabi_attribute 20, 1
   5              		.eabi_attribute 21, 1
   6              		.eabi_attribute 23, 3
   7              		.eabi_attribute 24, 1
   8              		.eabi_attribute 25, 1
   9              		.eabi_attribute 26, 1
  10              		.eabi_attribute 30, 2
  11              		.eabi_attribute 34, 1
  12              		.eabi_attribute 18, 4
  13              		.thumb
  14              		.file	"mss_sys_services.c"
  15              		.section	.text.determine_seq,"ax",%progbits
  16              		.align	2
  17              		.thumb
  18              		.thumb_func
  20              	determine_seq:
  21              		@ args = 0, pretend = 0, frame = 0
  22              		@ frame_needed = 0, uses_anonymous_args = 0
  23              		@ link register save eliminated.
  24 0000 0628     		cmp	r0, #6
  25 0002 1DD8     		bhi	.L2
  26 0004 DFE800F0 		tbb	[pc, r0]
  27              	.L4:
  28 0008 08       		.byte	(.L3-.L4)/2
  29 0009 0C       		.byte	(.L5-.L4)/2
  30 000a 10       		.byte	(.L6-.L4)/2
  31 000b 1C       		.byte	(.L2-.L4)/2
  32 000c 14       		.byte	(.L7-.L4)/2
  33 000d 18       		.byte	(.L8-.L4)/2
  34 000e 04       		.byte	(.L9-.L4)/2
  35 000f 00       		.p2align 1
  36              	.L9:
  37 0010 0223     		movs	r3, #2
  38 0012 0B70     		strb	r3, [r1]
  39 0014 0C48     		ldr	r0, .L12
  40 0016 7047     		bx	lr
  41              	.L3:
  42 0018 0423     		movs	r3, #4
  43 001a 0B70     		strb	r3, [r1]
  44 001c 0B48     		ldr	r0, .L12+4
  45 001e 7047     		bx	lr
  46              	.L5:
  47 0020 0323     		movs	r3, #3
  48 0022 0B70     		strb	r3, [r1]
  49 0024 0A48     		ldr	r0, .L12+8
  50 0026 7047     		bx	lr
  51              	.L6:
  52 0028 0523     		movs	r3, #5
  53 002a 0B70     		strb	r3, [r1]
  54 002c 0948     		ldr	r0, .L12+12
  55 002e 7047     		bx	lr
  56              	.L7:
  57 0030 0323     		movs	r3, #3
  58 0032 0B70     		strb	r3, [r1]
  59 0034 0848     		ldr	r0, .L12+16
  60 0036 7047     		bx	lr
  61              	.L8:
  62 0038 0223     		movs	r3, #2
  63 003a 0B70     		strb	r3, [r1]
  64 003c 0748     		ldr	r0, .L12+20
  65 003e 7047     		bx	lr
  66              	.L2:
  67 0040 0023     		movs	r3, #0
  68 0042 1846     		mov	r0, r3
  69 0044 0B70     		strb	r3, [r1]
  70 0046 7047     		bx	lr
  71              	.L13:
  72              		.align	2
  73              	.L12:
  74 0048 00000000 		.word	.LANCHOR5
  75 004c 00000000 		.word	.LANCHOR0
  76 0050 00000000 		.word	.LANCHOR1
  77 0054 00000000 		.word	.LANCHOR2
  78 0058 00000000 		.word	.LANCHOR3
  79 005c 00000000 		.word	.LANCHOR4
  81              		.section	.text.clk_switching_fix,"ax",%progbits
  82              		.align	2
  83              		.thumb
  84              		.thumb_func
  86              	clk_switching_fix:
  87              		@ args = 0, pretend = 0, frame = 8
  88              		@ frame_needed = 0, uses_anonymous_args = 0
  89 0000 30B5     		push	{r4, r5, lr}
  90 0002 604C     		ldr	r4, .L43
  91 0004 83B0     		sub	sp, sp, #12
  92 0006 D4F89830 		ldr	r3, [r4, #152]
  93 000a 0193     		str	r3, [sp, #4]
  94 000c D4F84C31 		ldr	r3, [r4, #332]
  95 0010 9BB2     		uxth	r3, r3
  96 0012 A3F57842 		sub	r2, r3, #63488
  97 0016 911E     		subs	r1, r2, #2
  98 0018 0229     		cmp	r1, #2
  99 001a 0DD9     		bls	.L15
 100 001c 063A     		subs	r2, r2, #6
 101 001e 012A     		cmp	r2, #1
 102 0020 0AD9     		bls	.L15
 103 0022 4FF60502 		movw	r2, #63493
 104 0026 9342     		cmp	r3, r2
 105 0028 33D0     		beq	.L41
 106 002a 4FF60802 		movw	r2, #63496
 107 002e 9342     		cmp	r3, r2
 108 0030 0ED0     		beq	.L31
 109              	.L32:
 110 0032 0020     		movs	r0, #0
 111 0034 03B0     		add	sp, sp, #12
 112              		@ sp needed
 113 0036 30BD     		pop	{r4, r5, pc}
 114              	.L15:
 115 0038 5249     		ldr	r1, .L43
 116 003a 534A     		ldr	r2, .L43+4
 117 003c D1F89800 		ldr	r0, [r1, #152]
 118 0040 524B     		ldr	r3, .L43+8
 119 0042 0240     		ands	r2, r2, r0
 120 0044 1343     		orrs	r3, r3, r2
 121 0046 C1F89830 		str	r3, [r1, #152]
 122 004a 0020     		movs	r0, #0
 123              	.L17:
 124 004c 03B0     		add	sp, sp, #12
 125              		@ sp needed
 126 004e 30BD     		pop	{r4, r5, pc}
 127              	.L31:
 128 0050 019A     		ldr	r2, [sp, #4]
 129 0052 0199     		ldr	r1, [sp, #4]
 130 0054 019C     		ldr	r4, [sp, #4]
 131 0056 0198     		ldr	r0, [sp, #4]
 132 0058 4D4B     		ldr	r3, .L43+12
 133 005a C2F38202 		ubfx	r2, r2, #2, #3
 134 005e C1F34211 		ubfx	r1, r1, #5, #3
 135 0062 C0F3C240 		ubfx	r0, r0, #19, #3
 136 0066 C4F34224 		ubfx	r4, r4, #9, #3
 137 006a 8A42     		cmp	r2, r1
 138 006c D860     		str	r0, [r3, #12]
 139 006e 9C60     		str	r4, [r3, #8]
 140 0070 1A60     		str	r2, [r3]
 141 0072 5960     		str	r1, [r3, #4]
 142 0074 03F10400 		add	r0, r3, #4
 143 0078 03F10C03 		add	r3, r3, #12
 144 007c 07D1     		bne	.L35
 145              	.L42:
 146 007e 052A     		cmp	r2, #5
 147 0080 05D8     		bhi	.L35
 148 0082 9842     		cmp	r0, r3
 149 0084 D5D0     		beq	.L32
 150 0086 50F8041F 		ldr	r1, [r0, #4]!
 151 008a 8A42     		cmp	r2, r1
 152 008c F7D0     		beq	.L42
 153              	.L35:
 154 008e 0120     		movs	r0, #1
 155 0090 DCE7     		b	.L17
 156              	.L41:
 157 0092 019B     		ldr	r3, [sp, #4]
 158 0094 3E4D     		ldr	r5, .L43+12
 159 0096 C3F38203 		ubfx	r3, r3, #2, #3
 160 009a 0DF10301 		add	r1, sp, #3
 161 009e 1846     		mov	r0, r3
 162 00a0 2B60     		str	r3, [r5]
 163 00a2 FFF7FEFF 		bl	determine_seq
 164 00a6 9DF80310 		ldrb	r1, [sp, #3]	@ zero_extendqisi2
 165 00aa 0129     		cmp	r1, #1
 166 00ac 0DD9     		bls	.L23
 167 00ae 0144     		add	r1, r1, r0
 168 00b0 0130     		adds	r0, r0, #1
 169              	.L22:
 170 00b2 D4F89830 		ldr	r3, [r4, #152]
 171 00b6 10F8012B 		ldrb	r2, [r0], #1	@ zero_extendqisi2
 172 00ba 23F01C03 		bic	r3, r3, #28
 173 00be 43EA8203 		orr	r3, r3, r2, lsl #2
 174 00c2 8842     		cmp	r0, r1
 175 00c4 C4F89830 		str	r3, [r4, #152]
 176 00c8 F3D1     		bne	.L22
 177              	.L23:
 178 00ca 019B     		ldr	r3, [sp, #4]
 179 00cc 0DF10301 		add	r1, sp, #3
 180 00d0 C3F34213 		ubfx	r3, r3, #5, #3
 181 00d4 1846     		mov	r0, r3
 182 00d6 6B60     		str	r3, [r5, #4]
 183 00d8 FFF7FEFF 		bl	determine_seq
 184 00dc 9DF80340 		ldrb	r4, [sp, #3]	@ zero_extendqisi2
 185 00e0 012C     		cmp	r4, #1
 186 00e2 0ED9     		bls	.L21
 187 00e4 274A     		ldr	r2, .L43
 188 00e6 0444     		add	r4, r4, r0
 189 00e8 0130     		adds	r0, r0, #1
 190              	.L26:
 191 00ea D2F89830 		ldr	r3, [r2, #152]
 192 00ee 10F8011B 		ldrb	r1, [r0], #1	@ zero_extendqisi2
 193 00f2 23F0E003 		bic	r3, r3, #224
 194 00f6 43EA4113 		orr	r3, r3, r1, lsl #5
 195 00fa A042     		cmp	r0, r4
 196 00fc C2F89830 		str	r3, [r2, #152]
 197 0100 F3D1     		bne	.L26
 198              	.L21:
 199 0102 019B     		ldr	r3, [sp, #4]
 200 0104 0DF10301 		add	r1, sp, #3
 201 0108 C3F34223 		ubfx	r3, r3, #9, #3
 202 010c 1846     		mov	r0, r3
 203 010e AB60     		str	r3, [r5, #8]
 204 0110 FFF7FEFF 		bl	determine_seq
 205 0114 9DF80340 		ldrb	r4, [sp, #3]	@ zero_extendqisi2
 206 0118 012C     		cmp	r4, #1
 207 011a 0ED9     		bls	.L25
 208 011c 194A     		ldr	r2, .L43
 209 011e 0444     		add	r4, r4, r0
 210 0120 0130     		adds	r0, r0, #1
 211              	.L29:
 212 0122 D2F89830 		ldr	r3, [r2, #152]
 213 0126 10F8011B 		ldrb	r1, [r0], #1	@ zero_extendqisi2
 214 012a 23F46063 		bic	r3, r3, #3584
 215 012e 43EA4123 		orr	r3, r3, r1, lsl #9
 216 0132 A042     		cmp	r0, r4
 217 0134 C2F89830 		str	r3, [r2, #152]
 218 0138 F3D1     		bne	.L29
 219              	.L25:
 220 013a 019B     		ldr	r3, [sp, #4]
 221 013c 0DF10301 		add	r1, sp, #3
 222 0140 C3F3C243 		ubfx	r3, r3, #19, #3
 223 0144 1846     		mov	r0, r3
 224 0146 EB60     		str	r3, [r5, #12]
 225 0148 FFF7FEFF 		bl	determine_seq
 226 014c 9DF80340 		ldrb	r4, [sp, #3]	@ zero_extendqisi2
 227 0150 012C     		cmp	r4, #1
 228 0152 0ED9     		bls	.L28
 229 0154 0B4A     		ldr	r2, .L43
 230 0156 0444     		add	r4, r4, r0
 231 0158 0130     		adds	r0, r0, #1
 232              	.L30:
 233 015a D2F89830 		ldr	r3, [r2, #152]
 234 015e 10F8011B 		ldrb	r1, [r0], #1	@ zero_extendqisi2
 235 0162 23F46013 		bic	r3, r3, #3670016
 236 0166 43EAC143 		orr	r3, r3, r1, lsl #19
 237 016a A042     		cmp	r0, r4
 238 016c C2F89830 		str	r3, [r2, #152]
 239 0170 F3D1     		bne	.L30
 240              	.L28:
 241 0172 044A     		ldr	r2, .L43
 242 0174 0020     		movs	r0, #0
 243 0176 D2F89830 		ldr	r3, [r2, #152]
 244 017a 43F48053 		orr	r3, r3, #4096
 245 017e C2F89830 		str	r3, [r2, #152]
 246 0182 63E7     		b	.L17
 247              	.L44:
 248              		.align	2
 249              	.L43:
 250 0184 00800340 		.word	1073971200
 251 0188 03E1C7FF 		.word	-3677949
 252 018c D81C3000 		.word	3153112
 253 0190 00000000 		.word	.LANCHOR6
 255              		.section	.text.asynchronous_event_handler,"ax",%progbits
 256              		.align	2
 257              		.thumb
 258              		.thumb_func
 260              	asynchronous_event_handler:
 261              		@ args = 0, pretend = 0, frame = 8
 262              		@ frame_needed = 0, uses_anonymous_args = 0
 263 0000 30B5     		push	{r4, r5, lr}
 264 0002 E028     		cmp	r0, #224
 265 0004 83B0     		sub	sp, sp, #12
 266 0006 0FD0     		beq	.L90
 267 0008 E128     		cmp	r0, #225
 268 000a 26D0     		beq	.L91
 269 000c F128     		cmp	r0, #241
 270 000e 03D0     		beq	.L70
 271 0010 80F08003 		eor	r3, r0, #128
 272 0014 202B     		cmp	r3, #32
 273 0016 48D8     		bhi	.L92
 274              	.L70:
 275 0018 5C4B     		ldr	r3, .L96
 276 001a 1B68     		ldr	r3, [r3]
 277 001c 13B1     		cbz	r3, .L45
 278 001e 5C4A     		ldr	r2, .L96+4
 279 0020 5178     		ldrb	r1, [r2, #1]	@ zero_extendqisi2
 280 0022 9847     		blx	r3
 281              	.L45:
 282 0024 03B0     		add	sp, sp, #12
 283              		@ sp needed
 284 0026 30BD     		pop	{r4, r5, pc}
 285              	.L90:
 286 0028 41F28833 		movw	r3, #5000
 287 002c 5949     		ldr	r1, .L96+8
 288 002e 0093     		str	r3, [sp]
 289 0030 01E0     		b	.L48
 290              	.L93:
 291 0032 009B     		ldr	r3, [sp]
 292 0034 3BB1     		cbz	r3, .L47
 293              	.L48:
 294 0036 D1F89820 		ldr	r2, [r1, #152]
 295 003a 009B     		ldr	r3, [sp]
 296 003c D204     		lsls	r2, r2, #19
 297 003e 03F1FF33 		add	r3, r3, #-1
 298 0042 0093     		str	r3, [sp]
 299 0044 F5D5     		bpl	.L93
 300              	.L47:
 301 0046 514B     		ldr	r3, .L96
 302 0048 1B68     		ldr	r3, [r3]
 303 004a 002B     		cmp	r3, #0
 304 004c EAD0     		beq	.L45
 305 004e 504A     		ldr	r2, .L96+4
 306 0050 E020     		movs	r0, #224
 307 0052 5178     		ldrb	r1, [r2, #1]	@ zero_extendqisi2
 308 0054 9847     		blx	r3
 309 0056 03B0     		add	sp, sp, #12
 310              		@ sp needed
 311 0058 30BD     		pop	{r4, r5, pc}
 312              	.L91:
 313 005a 41F28833 		movw	r3, #5000
 314 005e 4D49     		ldr	r1, .L96+8
 315 0060 0193     		str	r3, [sp, #4]
 316 0062 01E0     		b	.L53
 317              	.L94:
 318 0064 019B     		ldr	r3, [sp, #4]
 319 0066 33B1     		cbz	r3, .L52
 320              	.L53:
 321 0068 D1F89820 		ldr	r2, [r1, #152]
 322 006c 019B     		ldr	r3, [sp, #4]
 323 006e 013B     		subs	r3, r3, #1
 324 0070 0193     		str	r3, [sp, #4]
 325 0072 D304     		lsls	r3, r2, #19
 326 0074 F6D4     		bmi	.L94
 327              	.L52:
 328 0076 474D     		ldr	r5, .L96+8
 329 0078 D5F84C31 		ldr	r3, [r5, #332]
 330 007c 9BB2     		uxth	r3, r3
 331 007e A3F57842 		sub	r2, r3, #63488
 332 0082 911E     		subs	r1, r2, #2
 333 0084 0229     		cmp	r1, #2
 334 0086 16D9     		bls	.L54
 335 0088 063A     		subs	r2, r2, #6
 336 008a 012A     		cmp	r2, #1
 337 008c 13D9     		bls	.L54
 338 008e 4FF60502 		movw	r2, #63493
 339 0092 9342     		cmp	r3, r2
 340 0094 15D0     		beq	.L95
 341              	.L56:
 342 0096 3D4B     		ldr	r3, .L96
 343 0098 1B68     		ldr	r3, [r3]
 344 009a 002B     		cmp	r3, #0
 345 009c C2D0     		beq	.L45
 346 009e 3C4A     		ldr	r2, .L96+4
 347 00a0 E120     		movs	r0, #225
 348 00a2 5178     		ldrb	r1, [r2, #1]	@ zero_extendqisi2
 349 00a4 9847     		blx	r3
 350 00a6 03B0     		add	sp, sp, #12
 351              		@ sp needed
 352 00a8 30BD     		pop	{r4, r5, pc}
 353              	.L92:
 354 00aa 00F14F03 		add	r3, r0, #79
 355 00ae DBB2     		uxtb	r3, r3
 356 00b0 062B     		cmp	r3, #6
 357 00b2 B1D9     		bls	.L70
 358 00b4 B6E7     		b	.L45
 359              	.L54:
 360 00b6 384A     		ldr	r2, .L96+12
 361 00b8 364B     		ldr	r3, .L96+8
 362 00ba 1268     		ldr	r2, [r2]
 363 00bc C3F89820 		str	r2, [r3, #152]
 364 00c0 E9E7     		b	.L56
 365              	.L95:
 366 00c2 364C     		ldr	r4, .L96+16
 367 00c4 6946     		mov	r1, sp
 368 00c6 2078     		ldrb	r0, [r4]	@ zero_extendqisi2
 369 00c8 FFF7FEFF 		bl	determine_seq
 370 00cc 9DF80030 		ldrb	r3, [sp]	@ zero_extendqisi2
 371 00d0 73B1     		cbz	r3, .L61
 372              	.L60:
 373 00d2 D5F89820 		ldr	r2, [r5, #152]
 374 00d6 C118     		adds	r1, r0, r3
 375 00d8 11F8011C 		ldrb	r1, [r1, #-1]	@ zero_extendqisi2
 376 00dc 22F01C02 		bic	r2, r2, #28
 377 00e0 013B     		subs	r3, r3, #1
 378 00e2 42EA8102 		orr	r2, r2, r1, lsl #2
 379 00e6 13F0FF03 		ands	r3, r3, #255
 380 00ea C5F89820 		str	r2, [r5, #152]
 381 00ee F0D1     		bne	.L60
 382              	.L61:
 383 00f0 2079     		ldrb	r0, [r4, #4]	@ zero_extendqisi2
 384 00f2 6946     		mov	r1, sp
 385 00f4 FFF7FEFF 		bl	determine_seq
 386 00f8 9DF80030 		ldrb	r3, [sp]	@ zero_extendqisi2
 387 00fc 7BB1     		cbz	r3, .L59
 388 00fe 2549     		ldr	r1, .L96+8
 389              	.L64:
 390 0100 D1F89820 		ldr	r2, [r1, #152]
 391 0104 C518     		adds	r5, r0, r3
 392 0106 15F8015C 		ldrb	r5, [r5, #-1]	@ zero_extendqisi2
 393 010a 22F0E002 		bic	r2, r2, #224
 394 010e 013B     		subs	r3, r3, #1
 395 0110 42EA4512 		orr	r2, r2, r5, lsl #5
 396 0114 13F0FF03 		ands	r3, r3, #255
 397 0118 C1F89820 		str	r2, [r1, #152]
 398 011c F0D1     		bne	.L64
 399              	.L59:
 400 011e 207A     		ldrb	r0, [r4, #8]	@ zero_extendqisi2
 401 0120 6946     		mov	r1, sp
 402 0122 FFF7FEFF 		bl	determine_seq
 403 0126 9DF80030 		ldrb	r3, [sp]	@ zero_extendqisi2
 404 012a 7BB1     		cbz	r3, .L63
 405 012c 1949     		ldr	r1, .L96+8
 406              	.L67:
 407 012e D1F89820 		ldr	r2, [r1, #152]
 408 0132 C518     		adds	r5, r0, r3
 409 0134 15F8015C 		ldrb	r5, [r5, #-1]	@ zero_extendqisi2
 410 0138 22F46062 		bic	r2, r2, #3584
 411 013c 013B     		subs	r3, r3, #1
 412 013e 42EA4522 		orr	r2, r2, r5, lsl #9
 413 0142 13F0FF03 		ands	r3, r3, #255
 414 0146 C1F89820 		str	r2, [r1, #152]
 415 014a F0D1     		bne	.L67
 416              	.L63:
 417 014c 207B     		ldrb	r0, [r4, #12]	@ zero_extendqisi2
 418 014e 6946     		mov	r1, sp
 419 0150 FFF7FEFF 		bl	determine_seq
 420 0154 9DF80030 		ldrb	r3, [sp]	@ zero_extendqisi2
 421 0158 7BB1     		cbz	r3, .L66
 422 015a 0E49     		ldr	r1, .L96+8
 423              	.L68:
 424 015c D1F89820 		ldr	r2, [r1, #152]
 425 0160 C418     		adds	r4, r0, r3
 426 0162 14F8014C 		ldrb	r4, [r4, #-1]	@ zero_extendqisi2
 427 0166 22F46012 		bic	r2, r2, #3670016
 428 016a 013B     		subs	r3, r3, #1
 429 016c 42EAC442 		orr	r2, r2, r4, lsl #19
 430 0170 13F0FF03 		ands	r3, r3, #255
 431 0174 C1F89820 		str	r2, [r1, #152]
 432 0178 F0D1     		bne	.L68
 433              	.L66:
 434 017a 064A     		ldr	r2, .L96+8
 435 017c D2F89830 		ldr	r3, [r2, #152]
 436 0180 23F48053 		bic	r3, r3, #4096
 437 0184 C2F89830 		str	r3, [r2, #152]
 438 0188 85E7     		b	.L56
 439              	.L97:
 440 018a 00BF     		.align	2
 441              	.L96:
 442 018c 00000000 		.word	.LANCHOR7
 443 0190 00000000 		.word	.LANCHOR8
 444 0194 00800340 		.word	1073971200
 445 0198 00000000 		.word	.LANCHOR9
 446 019c 00000000 		.word	.LANCHOR6
 448              		.section	.text.isp_page_read_handler,"ax",%progbits
 449              		.align	2
 450              		.thumb
 451              		.thumb_func
 453              	isp_page_read_handler:
 454              		@ args = 0, pretend = 0, frame = 8
 455              		@ frame_needed = 0, uses_anonymous_args = 0
 456 0000 10B5     		push	{r4, lr}
 457 0002 104C     		ldr	r4, .L113
 458 0004 82B0     		sub	sp, sp, #8
 459 0006 2378     		ldrb	r3, [r4]	@ zero_extendqisi2
 460 0008 012B     		cmp	r3, #1
 461 000a 12D1     		bne	.L99
 462 000c 0E4B     		ldr	r3, .L113+4
 463 000e 1B78     		ldrb	r3, [r3]	@ zero_extendqisi2
 464 0010 7BB1     		cbz	r3, .L99
 465 0012 41F28833 		movw	r3, #5000
 466 0016 0D49     		ldr	r1, .L113+8
 467 0018 0193     		str	r3, [sp, #4]
 468 001a 01E0     		b	.L101
 469              	.L112:
 470 001c 019B     		ldr	r3, [sp, #4]
 471 001e 33B1     		cbz	r3, .L100
 472              	.L101:
 473 0020 D1F89820 		ldr	r2, [r1, #152]
 474 0024 019B     		ldr	r3, [sp, #4]
 475 0026 013B     		subs	r3, r3, #1
 476 0028 0193     		str	r3, [sp, #4]
 477 002a D304     		lsls	r3, r2, #19
 478 002c F6D5     		bpl	.L112
 479              	.L100:
 480 002e 0023     		movs	r3, #0
 481 0030 2370     		strb	r3, [r4]
 482              	.L99:
 483 0032 074B     		ldr	r3, .L113+12
 484 0034 1B68     		ldr	r3, [r3]
 485 0036 13B1     		cbz	r3, .L103
 486 0038 9847     		blx	r3
 487 003a 02B0     		add	sp, sp, #8
 488              		@ sp needed
 489 003c 10BD     		pop	{r4, pc}
 490              	.L103:
 491 003e 1846     		mov	r0, r3
 492 0040 02B0     		add	sp, sp, #8
 493              		@ sp needed
 494 0042 10BD     		pop	{r4, pc}
 495              	.L114:
 496              		.align	2
 497              	.L113:
 498 0044 00000000 		.word	.LANCHOR10
 499 0048 00000000 		.word	.LANCHOR11
 500 004c 00800340 		.word	1073971200
 501 0050 00000000 		.word	.LANCHOR12
 503              		.section	.text.isp_sys_completion_handler,"ax",%progbits
 504              		.align	2
 505              		.thumb
 506              		.thumb_func
 508              	isp_sys_completion_handler:
 509              		@ args = 0, pretend = 0, frame = 0
 510              		@ frame_needed = 0, uses_anonymous_args = 0
 511              		@ link register save eliminated.
 512 0000 084B     		ldr	r3, .L121
 513 0002 1B78     		ldrb	r3, [r3]	@ zero_extendqisi2
 514 0004 3BB1     		cbz	r3, .L116
 515 0006 084A     		ldr	r2, .L121+4
 516 0008 084B     		ldr	r3, .L121+8
 517 000a 1168     		ldr	r1, [r2]
 518 000c 084A     		ldr	r2, .L121+12
 519 000e D960     		str	r1, [r3, #12]
 520 0010 1268     		ldr	r2, [r2]
 521 0012 C3F89C20 		str	r2, [r3, #156]
 522              	.L116:
 523 0016 074B     		ldr	r3, .L121+16
 524 0018 1B68     		ldr	r3, [r3]
 525 001a 0BB1     		cbz	r3, .L115
 526 001c 4078     		ldrb	r0, [r0, #1]	@ zero_extendqisi2
 527 001e 1847     		bx	r3	@ indirect register sibling call
 528              	.L115:
 529 0020 7047     		bx	lr
 530              	.L122:
 531 0022 00BF     		.align	2
 532              	.L121:
 533 0024 00000000 		.word	.LANCHOR11
 534 0028 00000000 		.word	.LANCHOR13
 535 002c 00800340 		.word	1073971200
 536 0030 00000000 		.word	.LANCHOR14
 537 0034 00000000 		.word	.LANCHOR15
 539              		.section	.text.request_completion_handler,"ax",%progbits
 540              		.align	2
 541              		.thumb
 542              		.thumb_func
 544              	request_completion_handler:
 545              		@ args = 0, pretend = 0, frame = 0
 546              		@ frame_needed = 0, uses_anonymous_args = 0
 547              		@ link register save eliminated.
 548 0000 024A     		ldr	r2, .L124
 549 0002 034B     		ldr	r3, .L124+4
 550 0004 0020     		movs	r0, #0
 551 0006 1070     		strb	r0, [r2]
 552 0008 1980     		strh	r1, [r3]	@ movhi
 553 000a 7047     		bx	lr
 554              	.L125:
 555              		.align	2
 556              	.L124:
 557 000c 00000000 		.word	.LANCHOR16
 558 0010 00000000 		.word	.LANCHOR17
 560              		.section	.text.execute_service,"ax",%progbits
 561              		.align	2
 562              		.thumb
 563              		.thumb_func
 565              	execute_service:
 566              		@ args = 0, pretend = 0, frame = 0
 567              		@ frame_needed = 0, uses_anonymous_args = 0
 568 0000 2DE9F047 		push	{r4, r5, r6, r7, r8, r9, r10, lr}
 569 0004 8146     		mov	r9, r0
 570 0006 9046     		mov	r8, r2
 571 0008 1F46     		mov	r7, r3
 572 000a 154C     		ldr	r4, .L136
 573 000c 82B0     		sub	sp, sp, #8
 574              	.L127:
 575 000e 2378     		ldrb	r3, [r4]	@ zero_extendqisi2
 576 0010 134E     		ldr	r6, .L136
 577 0012 03F0FF05 		and	r5, r3, #255
 578 0016 002B     		cmp	r3, #0
 579 0018 F9D1     		bne	.L127
 580 001a 124B     		ldr	r3, .L136+4
 581 001c DFF848A0 		ldr	r10, .L136+8
 582 0020 4FF0010E 		mov	lr, #1
 583 0024 0093     		str	r3, [sp]
 584 0026 4846     		mov	r0, r9
 585 0028 4246     		mov	r2, r8
 586 002a 3B46     		mov	r3, r7
 587 002c 86F800E0 		strb	lr, [r6]
 588 0030 AAF80050 		strh	r5, [r10]	@ movhi
 589 0034 FFF7FEFF 		bl	MSS_COMBLK_send_cmd_with_ptr
 590              	.L128:
 591 0038 2378     		ldrb	r3, [r4]	@ zero_extendqisi2
 592 003a 002B     		cmp	r3, #0
 593 003c FCD1     		bne	.L128
 594 003e BAF80030 		ldrh	r3, [r10]
 595 0042 9BB2     		uxth	r3, r3
 596 0044 9F42     		cmp	r7, r3
 597 0046 03D0     		beq	.L135
 598              	.L131:
 599 0048 C820     		movs	r0, #200
 600              	.L129:
 601 004a 02B0     		add	sp, sp, #8
 602              		@ sp needed
 603 004c BDE8F087 		pop	{r4, r5, r6, r7, r8, r9, r10, pc}
 604              	.L135:
 605 0050 98F80030 		ldrb	r3, [r8]	@ zero_extendqisi2
 606 0054 4B45     		cmp	r3, r9
 607 0056 F7D1     		bne	.L131
 608 0058 98F80100 		ldrb	r0, [r8, #1]	@ zero_extendqisi2
 609 005c F5E7     		b	.L129
 610              	.L137:
 611 005e 00BF     		.align	2
 612              	.L136:
 613 0060 00000000 		.word	.LANCHOR16
 614 0064 00000000 		.word	request_completion_handler
 615 0068 00000000 		.word	.LANCHOR17
 617              		.section	.text.MSS_SYS_init,"ax",%progbits
 618              		.align	2
 619              		.global	MSS_SYS_init
 620              		.thumb
 621              		.thumb_func
 623              	MSS_SYS_init:
 624              		@ args = 0, pretend = 0, frame = 0
 625              		@ frame_needed = 0, uses_anonymous_args = 0
 626              		@ link register save eliminated.
 627 0000 30B4     		push	{r4, r5}
 628 0002 0849     		ldr	r1, .L140
 629 0004 084D     		ldr	r5, .L140+4
 630 0006 0023     		movs	r3, #0
 631 0008 084A     		ldr	r2, .L140+8
 632 000a 2B80     		strh	r3, [r5]	@ movhi
 633 000c 084C     		ldr	r4, .L140+12
 634 000e 0B70     		strb	r3, [r1]
 635 0010 D2F89820 		ldr	r2, [r2, #152]
 636 0014 074B     		ldr	r3, .L140+16
 637 0016 2060     		str	r0, [r4]
 638 0018 0749     		ldr	r1, .L140+20
 639 001a 0848     		ldr	r0, .L140+24
 640 001c 30BC     		pop	{r4, r5}
 641 001e 1A60     		str	r2, [r3]
 642 0020 FFF7FEBF 		b	MSS_COMBLK_init
 643              	.L141:
 644              		.align	2
 645              	.L140:
 646 0024 00000000 		.word	.LANCHOR16
 647 0028 00000000 		.word	.LANCHOR17
 648 002c 00800340 		.word	1073971200
 649 0030 00000000 		.word	.LANCHOR7
 650 0034 00000000 		.word	.LANCHOR9
 651 0038 00000000 		.word	.LANCHOR8
 652 003c 00000000 		.word	asynchronous_event_handler
 654              		.section	.text.MSS_SYS_get_serial_number,"ax",%progbits
 655              		.align	2
 656              		.global	MSS_SYS_get_serial_number
 657              		.thumb
 658              		.thumb_func
 660              	MSS_SYS_get_serial_number:
 661              		@ args = 0, pretend = 0, frame = 8
 662              		@ frame_needed = 0, uses_anonymous_args = 0
 663 0000 00B5     		push	{lr}
 664 0002 83B0     		sub	sp, sp, #12
 665 0004 0146     		mov	r1, r0
 666 0006 6A46     		mov	r2, sp
 667 0008 0623     		movs	r3, #6
 668 000a 0120     		movs	r0, #1
 669 000c FFF7FEFF 		bl	execute_service
 670 0010 03B0     		add	sp, sp, #12
 671              		@ sp needed
 672 0012 5DF804FB 		ldr	pc, [sp], #4
 674 0016 00BF     		.section	.text.MSS_SYS_get_user_code,"ax",%progbits
 675              		.align	2
 676              		.global	MSS_SYS_get_user_code
 677              		.thumb
 678              		.thumb_func
 680              	MSS_SYS_get_user_code:
 681              		@ args = 0, pretend = 0, frame = 8
 682              		@ frame_needed = 0, uses_anonymous_args = 0
 683 0000 00B5     		push	{lr}
 684 0002 83B0     		sub	sp, sp, #12
 685 0004 0146     		mov	r1, r0
 686 0006 6A46     		mov	r2, sp
 687 0008 0623     		movs	r3, #6
 688 000a 0420     		movs	r0, #4
 689 000c FFF7FEFF 		bl	execute_service
 690 0010 03B0     		add	sp, sp, #12
 691              		@ sp needed
 692 0012 5DF804FB 		ldr	pc, [sp], #4
 694 0016 00BF     		.section	.text.MSS_SYS_get_design_version,"ax",%progbits
 695              		.align	2
 696              		.global	MSS_SYS_get_design_version
 697              		.thumb
 698              		.thumb_func
 700              	MSS_SYS_get_design_version:
 701              		@ args = 0, pretend = 0, frame = 8
 702              		@ frame_needed = 0, uses_anonymous_args = 0
 703 0000 00B5     		push	{lr}
 704 0002 83B0     		sub	sp, sp, #12
 705 0004 0146     		mov	r1, r0
 706 0006 6A46     		mov	r2, sp
 707 0008 0623     		movs	r3, #6
 708 000a 0520     		movs	r0, #5
 709 000c FFF7FEFF 		bl	execute_service
 710 0010 03B0     		add	sp, sp, #12
 711              		@ sp needed
 712 0012 5DF804FB 		ldr	pc, [sp], #4
 714 0016 00BF     		.section	.text.MSS_SYS_get_device_certificate,"ax",%progbits
 715              		.align	2
 716              		.global	MSS_SYS_get_device_certificate
 717              		.thumb
 718              		.thumb_func
 720              	MSS_SYS_get_device_certificate:
 721              		@ args = 0, pretend = 0, frame = 8
 722              		@ frame_needed = 0, uses_anonymous_args = 0
 723 0000 00B5     		push	{lr}
 724 0002 83B0     		sub	sp, sp, #12
 725 0004 0146     		mov	r1, r0
 726 0006 6A46     		mov	r2, sp
 727 0008 0623     		movs	r3, #6
 728 000a 0020     		movs	r0, #0
 729 000c FFF7FEFF 		bl	execute_service
 730 0010 03B0     		add	sp, sp, #12
 731              		@ sp needed
 732 0012 5DF804FB 		ldr	pc, [sp], #4
 734 0016 00BF     		.section	.text.MSS_SYS_get_secondary_device_certificate,"ax",%progbits
 735              		.align	2
 736              		.global	MSS_SYS_get_secondary_device_certificate
 737              		.thumb
 738              		.thumb_func
 740              	MSS_SYS_get_secondary_device_certificate:
 741              		@ args = 0, pretend = 0, frame = 8
 742              		@ frame_needed = 0, uses_anonymous_args = 0
 743 0000 00B5     		push	{lr}
 744 0002 83B0     		sub	sp, sp, #12
 745 0004 0146     		mov	r1, r0
 746 0006 6A46     		mov	r2, sp
 747 0008 0623     		movs	r3, #6
 748 000a 1E20     		movs	r0, #30
 749 000c FFF7FEFF 		bl	execute_service
 750 0010 03B0     		add	sp, sp, #12
 751              		@ sp needed
 752 0012 5DF804FB 		ldr	pc, [sp], #4
 754 0016 00BF     		.section	.text.MSS_SYS_flash_freeze,"ax",%progbits
 755              		.align	2
 756              		.global	MSS_SYS_flash_freeze
 757              		.thumb
 758              		.thumb_func
 760              	MSS_SYS_flash_freeze:
 761              		@ args = 0, pretend = 0, frame = 8
 762              		@ frame_needed = 0, uses_anonymous_args = 0
 763 0000 2DE9F041 		push	{r4, r5, r6, r7, r8, lr}
 764 0004 234D     		ldr	r5, .L164
 765 0006 244B     		ldr	r3, .L164+4
 766 0008 D5F89820 		ldr	r2, [r5, #152]
 767 000c 86B0     		sub	sp, sp, #24
 768 000e 0746     		mov	r7, r0
 769 0010 1A60     		str	r2, [r3]
 770 0012 FFF7FEFF 		bl	clk_switching_fix
 771 0016 18B1     		cbz	r0, .L162
 772 0018 C920     		movs	r0, #201
 773              	.L153:
 774 001a 06B0     		add	sp, sp, #24
 775              		@ sp needed
 776 001c BDE8F081 		pop	{r4, r5, r6, r7, r8, pc}
 777              	.L162:
 778 0020 D5F88830 		ldr	r3, [r5, #136]
 779 0024 1D4C     		ldr	r4, .L164+8
 780 0026 43F00603 		orr	r3, r3, #6
 781 002a C5F88830 		str	r3, [r5, #136]
 782              	.L154:
 783 002e 2378     		ldrb	r3, [r4]	@ zero_extendqisi2
 784 0030 1A4E     		ldr	r6, .L164+8
 785 0032 03F0FF05 		and	r5, r3, #255
 786 0036 002B     		cmp	r3, #0
 787 0038 F9D1     		bne	.L154
 788 003a 194A     		ldr	r2, .L164+12
 789 003c 4FF0020E 		mov	lr, #2
 790 0040 05AB     		add	r3, sp, #20
 791 0042 DFF86080 		ldr	r8, .L164+16
 792 0046 4FF0010C 		mov	ip, #1
 793 004a 0292     		str	r2, [sp, #8]
 794 004c 0093     		str	r3, [sp]
 795 004e CDF804E0 		str	lr, [sp, #4]
 796 0052 7146     		mov	r1, lr
 797 0054 04A8     		add	r0, sp, #16
 798 0056 2A46     		mov	r2, r5
 799 0058 2B46     		mov	r3, r5
 800 005a 86F800C0 		strb	ip, [r6]
 801 005e 8DF81170 		strb	r7, [sp, #17]
 802 0062 8DF810E0 		strb	lr, [sp, #16]
 803 0066 A8F80050 		strh	r5, [r8]	@ movhi
 804 006a FFF7FEFF 		bl	MSS_COMBLK_send_cmd
 805              	.L155:
 806 006e 2378     		ldrb	r3, [r4]	@ zero_extendqisi2
 807 0070 002B     		cmp	r3, #0
 808 0072 FCD1     		bne	.L155
 809 0074 B8F80030 		ldrh	r3, [r8]
 810 0078 9BB2     		uxth	r3, r3
 811 007a 022B     		cmp	r3, #2
 812 007c 03D0     		beq	.L163
 813              	.L158:
 814 007e C820     		movs	r0, #200
 815 0080 06B0     		add	sp, sp, #24
 816              		@ sp needed
 817 0082 BDE8F081 		pop	{r4, r5, r6, r7, r8, pc}
 818              	.L163:
 819 0086 9DF81430 		ldrb	r3, [sp, #20]	@ zero_extendqisi2
 820 008a 022B     		cmp	r3, #2
 821 008c F7D1     		bne	.L158
 822 008e 9DF81500 		ldrb	r0, [sp, #21]	@ zero_extendqisi2
 823 0092 C2E7     		b	.L153
 824              	.L165:
 825              		.align	2
 826              	.L164:
 827 0094 00800340 		.word	1073971200
 828 0098 00000000 		.word	.LANCHOR9
 829 009c 00000000 		.word	.LANCHOR16
 830 00a0 00000000 		.word	request_completion_handler
 831 00a4 00000000 		.word	.LANCHOR17
 833              		.section	.text.MSS_SYS_128bit_aes,"ax",%progbits
 834              		.align	2
 835              		.global	MSS_SYS_128bit_aes
 836              		.thumb
 837              		.thumb_func
 839              	MSS_SYS_128bit_aes:
 840              		@ args = 8, pretend = 0, frame = 64
 841              		@ frame_needed = 0, uses_anonymous_args = 0
 842 0000 2DE9F04F 		push	{r4, r5, r6, r7, r8, r9, r10, fp, lr}
 843 0004 0546     		mov	r5, r0
 844 0006 0F46     		mov	r7, r1
 845 0008 91B0     		sub	sp, sp, #68
 846 000a 1646     		mov	r6, r2
 847 000c 6968     		ldr	r1, [r5, #4]	@ unaligned
 848 000e AA68     		ldr	r2, [r5, #8]	@ unaligned
 849 0010 9B46     		mov	fp, r3
 850 0012 0068     		ldr	r0, [r0]	@ unaligned
 851 0014 EB68     		ldr	r3, [r5, #12]	@ unaligned
 852 0016 05AC     		add	r4, sp, #20
 853 0018 0FC4     		stmia	r4!, {r0, r1, r2, r3}
 854 001a 1B9C     		ldr	r4, [sp, #108]
 855 001c 3868     		ldr	r0, [r7]	@ unaligned
 856 001e 7968     		ldr	r1, [r7, #4]	@ unaligned
 857 0020 BA68     		ldr	r2, [r7, #8]	@ unaligned
 858 0022 FB68     		ldr	r3, [r7, #12]	@ unaligned
 859 0024 09AF     		add	r7, sp, #36
 860 0026 0FC7     		stmia	r7!, {r0, r1, r2, r3}
 861 0028 4FEA142C 		lsr	ip, r4, #8
 862 002c 4FEA144E 		lsr	lr, r4, #16
 863 0030 270E     		lsrs	r7, r4, #24
 864 0032 8DF83C40 		strb	r4, [sp, #60]
 865 0036 4FF00004 		mov	r4, #0
 866 003a 330A     		lsrs	r3, r6, #8
 867 003c 1A9D     		ldr	r5, [sp, #104]
 868 003e 0193     		str	r3, [sp, #4]
 869 0040 8DF83460 		strb	r6, [sp, #52]
 870 0044 9DF80460 		ldrb	r6, [sp, #4]	@ zero_extendqisi2
 871 0048 05A9     		add	r1, sp, #20
 872 004a 4FEA152A 		lsr	r10, r5, #8
 873 004e 4FEA1549 		lsr	r9, r5, #16
 874 0052 4FEA1568 		lsr	r8, r5, #24
 875 0056 03AA     		add	r2, sp, #12
 876 0058 0623     		movs	r3, #6
 877 005a 0320     		movs	r0, #3
 878 005c 8DF836B0 		strb	fp, [sp, #54]
 879 0060 8DF83560 		strb	r6, [sp, #53]
 880 0064 8DF83850 		strb	r5, [sp, #56]
 881 0068 8DF839A0 		strb	r10, [sp, #57]
 882 006c 8DF83A90 		strb	r9, [sp, #58]
 883 0070 8DF83B80 		strb	r8, [sp, #59]
 884 0074 8DF83DC0 		strb	ip, [sp, #61]
 885 0078 8DF83EE0 		strb	lr, [sp, #62]
 886 007c 8DF83F70 		strb	r7, [sp, #63]
 887 0080 8DF83740 		strb	r4, [sp, #55]
 888 0084 FFF7FEFF 		bl	execute_service
 889 0088 11B0     		add	sp, sp, #68
 890              		@ sp needed
 891 008a BDE8F08F 		pop	{r4, r5, r6, r7, r8, r9, r10, fp, pc}
 893 008e 00BF     		.section	.text.MSS_SYS_256bit_aes,"ax",%progbits
 894              		.align	2
 895              		.global	MSS_SYS_256bit_aes
 896              		.thumb
 897              		.thumb_func
 899              	MSS_SYS_256bit_aes:
 900              		@ args = 8, pretend = 0, frame = 80
 901              		@ frame_needed = 0, uses_anonymous_args = 0
 902 0000 2DE9F04F 		push	{r4, r5, r6, r7, r8, r9, r10, fp, lr}
 903 0004 0546     		mov	r5, r0
 904 0006 8E46     		mov	lr, r1
 905 0008 95B0     		sub	sp, sp, #84
 906 000a 1646     		mov	r6, r2
 907 000c 6968     		ldr	r1, [r5, #4]	@ unaligned
 908 000e AA68     		ldr	r2, [r5, #8]	@ unaligned
 909 0010 9B46     		mov	fp, r3
 910 0012 0068     		ldr	r0, [r0]	@ unaligned
 911 0014 EB68     		ldr	r3, [r5, #12]	@ unaligned
 912 0016 05AC     		add	r4, sp, #20
 913 0018 0FC4     		stmia	r4!, {r0, r1, r2, r3}
 914 001a 2869     		ldr	r0, [r5, #16]	@ unaligned
 915 001c 6969     		ldr	r1, [r5, #20]	@ unaligned
 916 001e AA69     		ldr	r2, [r5, #24]	@ unaligned
 917 0020 EB69     		ldr	r3, [r5, #28]	@ unaligned
 918 0022 1E9D     		ldr	r5, [sp, #120]
 919 0024 0FC4     		stmia	r4!, {r0, r1, r2, r3}
 920 0026 DEF80000 		ldr	r0, [lr]	@ unaligned
 921 002a DEF80410 		ldr	r1, [lr, #4]	@ unaligned
 922 002e DEF80820 		ldr	r2, [lr, #8]	@ unaligned
 923 0032 DEF80C30 		ldr	r3, [lr, #12]	@ unaligned
 924 0036 0DAF     		add	r7, sp, #52
 925 0038 0FC7     		stmia	r7!, {r0, r1, r2, r3}
 926 003a 4FEA152A 		lsr	r10, r5, #8
 927 003e 4FEA1549 		lsr	r9, r5, #16
 928 0042 4FEA1568 		lsr	r8, r5, #24
 929 0046 8DF84850 		strb	r5, [sp, #72]
 930 004a 4FF00005 		mov	r5, #0
 931 004e 330A     		lsrs	r3, r6, #8
 932 0050 1F9C     		ldr	r4, [sp, #124]
 933 0052 0193     		str	r3, [sp, #4]
 934 0054 8DF84460 		strb	r6, [sp, #68]
 935 0058 0620     		movs	r0, #6
 936 005a 9DF80460 		ldrb	r6, [sp, #4]	@ zero_extendqisi2
 937 005e 4FEA142C 		lsr	ip, r4, #8
 938 0062 4FEA144E 		lsr	lr, r4, #16
 939 0066 05A9     		add	r1, sp, #20
 940 0068 270E     		lsrs	r7, r4, #24
 941 006a 0346     		mov	r3, r0
 942 006c 03AA     		add	r2, sp, #12
 943 006e 8DF846B0 		strb	fp, [sp, #70]
 944 0072 8DF84560 		strb	r6, [sp, #69]
 945 0076 8DF849A0 		strb	r10, [sp, #73]
 946 007a 8DF84A90 		strb	r9, [sp, #74]
 947 007e 8DF84750 		strb	r5, [sp, #71]
 948 0082 8DF84B80 		strb	r8, [sp, #75]
 949 0086 8DF84C40 		strb	r4, [sp, #76]
 950 008a 8DF84DC0 		strb	ip, [sp, #77]
 951 008e 8DF84EE0 		strb	lr, [sp, #78]
 952 0092 8DF84F70 		strb	r7, [sp, #79]
 953 0096 FFF7FEFF 		bl	execute_service
 954 009a 15B0     		add	sp, sp, #84
 955              		@ sp needed
 956 009c BDE8F08F 		pop	{r4, r5, r6, r7, r8, r9, r10, fp, pc}
 958              		.section	.text.MSS_SYS_sha256,"ax",%progbits
 959              		.align	2
 960              		.global	MSS_SYS_sha256
 961              		.thumb
 962              		.thumb_func
 964              	MSS_SYS_sha256:
 965              		@ args = 0, pretend = 0, frame = 32
 966              		@ frame_needed = 0, uses_anonymous_args = 0
 967 0000 2DE9F04F 		push	{r4, r5, r6, r7, r8, r9, r10, fp, lr}
 968 0004 0446     		mov	r4, r0
 969 0006 1346     		mov	r3, r2
 970 0008 8B46     		mov	fp, r1
 971 000a 89B0     		sub	sp, sp, #36
 972 000c 4FEA122C 		lsr	ip, r2, #8
 973 0010 4FEA124E 		lsr	lr, r2, #16
 974 0014 170E     		lsrs	r7, r2, #24
 975 0016 020E     		lsrs	r2, r0, #24
 976 0018 0192     		str	r2, [sp, #4]
 977 001a 8DF81C40 		strb	r4, [sp, #28]
 978 001e 9DF80440 		ldrb	r4, [sp, #4]	@ zero_extendqisi2
 979 0022 4FEA112A 		lsr	r10, r1, #8
 980 0026 4FEA1149 		lsr	r9, r1, #16
 981 002a 4FEA1168 		lsr	r8, r1, #24
 982 002e 060A     		lsrs	r6, r0, #8
 983 0030 050C     		lsrs	r5, r0, #16
 984 0032 8DF81830 		strb	r3, [sp, #24]
 985 0036 05A9     		add	r1, sp, #20
 986 0038 03AA     		add	r2, sp, #12
 987 003a 0623     		movs	r3, #6
 988 003c 0A20     		movs	r0, #10
 989 003e 8DF814B0 		strb	fp, [sp, #20]
 990 0042 8DF815A0 		strb	r10, [sp, #21]
 991 0046 8DF81690 		strb	r9, [sp, #22]
 992 004a 8DF81780 		strb	r8, [sp, #23]
 993 004e 8DF819C0 		strb	ip, [sp, #25]
 994 0052 8DF81AE0 		strb	lr, [sp, #26]
 995 0056 8DF81B70 		strb	r7, [sp, #27]
 996 005a 8DF81D60 		strb	r6, [sp, #29]
 997 005e 8DF81E50 		strb	r5, [sp, #30]
 998 0062 8DF81F40 		strb	r4, [sp, #31]
 999 0066 FFF7FEFF 		bl	execute_service
 1000 006a 09B0     		add	sp, sp, #36
 1001              		@ sp needed
 1002 006c BDE8F08F 		pop	{r4, r5, r6, r7, r8, r9, r10, fp, pc}
 1004              		.section	.text.MSS_SYS_hmac,"ax",%progbits
 1005              		.align	2
 1006              		.global	MSS_SYS_hmac
 1007              		.thumb
 1008              		.thumb_func
 1010              	MSS_SYS_hmac:
 1011              		@ args = 0, pretend = 0, frame = 80
 1012              		@ frame_needed = 0, uses_anonymous_args = 0
 1013 0000 2DE9F04F 		push	{r4, r5, r6, r7, r8, r9, r10, fp, lr}
 1014 0004 8646     		mov	lr, r0
 1015 0006 1646     		mov	r6, r2
 1016 0008 9C46     		mov	ip, r3
 1017 000a 95B0     		sub	sp, sp, #84
 1018 000c 0D46     		mov	r5, r1
 1019 000e DEF80820 		ldr	r2, [lr, #8]	@ unaligned
 1020 0012 DEF80410 		ldr	r1, [lr, #4]	@ unaligned
 1021 0016 DEF80C30 		ldr	r3, [lr, #12]	@ unaligned
 1022 001a 0068     		ldr	r0, [r0]	@ unaligned
 1023 001c 05AF     		add	r7, sp, #20
 1024 001e 0FC7     		stmia	r7!, {r0, r1, r2, r3}
 1025 0020 DEF81000 		ldr	r0, [lr, #16]	@ unaligned
 1026 0024 DEF81410 		ldr	r1, [lr, #20]	@ unaligned
 1027 0028 DEF81820 		ldr	r2, [lr, #24]	@ unaligned
 1028 002c DEF81C30 		ldr	r3, [lr, #28]	@ unaligned
 1029 0030 340C     		lsrs	r4, r6, #16
 1030 0032 0FC7     		stmia	r7!, {r0, r1, r2, r3}
 1031 0034 330E     		lsrs	r3, r6, #24
 1032 0036 0193     		str	r3, [sp, #4]
 1033 0038 6346     		mov	r3, ip
 1034 003a 0093     		str	r3, [sp]
 1035 003c 4FEA152A 		lsr	r10, r5, #8
 1036 0040 4FEA1549 		lsr	r9, r5, #16
 1037 0044 4FEA1568 		lsr	r8, r5, #24
 1038 0048 8DF83850 		strb	r5, [sp, #56]
 1039 004c 8DF83640 		strb	r4, [sp, #54]
 1040 0050 9DF80050 		ldrb	r5, [sp]	@ zero_extendqisi2
 1041 0054 9DF80440 		ldrb	r4, [sp, #4]	@ zero_extendqisi2
 1042 0058 0C20     		movs	r0, #12
 1043 005a 4FEA134E 		lsr	lr, r3, #16
 1044 005e 4FEA1C2C 		lsr	ip, ip, #8
 1045 0062 1F0E     		lsrs	r7, r3, #24
 1046 0064 4FEA162B 		lsr	fp, r6, #8
 1047 0068 05A9     		add	r1, sp, #20
 1048 006a 0DEB0002 		add	r2, sp, r0
 1049 006e 0623     		movs	r3, #6
 1050 0070 8DF83460 		strb	r6, [sp, #52]
 1051 0074 8DF83C50 		strb	r5, [sp, #60]
 1052 0078 8DF835B0 		strb	fp, [sp, #53]
 1053 007c 8DF83740 		strb	r4, [sp, #55]
 1054 0080 8DF839A0 		strb	r10, [sp, #57]
 1055 0084 8DF83A90 		strb	r9, [sp, #58]
 1056 0088 8DF83B80 		strb	r8, [sp, #59]
 1057 008c 8DF83DC0 		strb	ip, [sp, #61]
 1058 0090 8DF83EE0 		strb	lr, [sp, #62]
 1059 0094 8DF83F70 		strb	r7, [sp, #63]
 1060 0098 FFF7FEFF 		bl	execute_service
 1061 009c 15B0     		add	sp, sp, #84
 1062              		@ sp needed
 1063 009e BDE8F08F 		pop	{r4, r5, r6, r7, r8, r9, r10, fp, pc}
 1065 00a2 00BF     		.section	.text.MSS_SYS_key_tree,"ax",%progbits
 1066              		.align	2
 1067              		.global	MSS_SYS_key_tree
 1068              		.thumb
 1069              		.thumb_func
 1071              	MSS_SYS_key_tree:
 1072              		@ args = 0, pretend = 0, frame = 64
 1073              		@ frame_needed = 0, uses_anonymous_args = 0
 1074 0000 2DE9F041 		push	{r4, r5, r6, r7, r8, lr}
 1075 0004 0546     		mov	r5, r0
 1076 0006 1646     		mov	r6, r2
 1077 0008 8846     		mov	r8, r1
 1078 000a 90B0     		sub	sp, sp, #64
 1079 000c 0068     		ldr	r0, [r0]	@ unaligned
 1080 000e 6968     		ldr	r1, [r5, #4]	@ unaligned
 1081 0010 AA68     		ldr	r2, [r5, #8]	@ unaligned
 1082 0012 EB68     		ldr	r3, [r5, #12]	@ unaligned
 1083 0014 03AC     		add	r4, sp, #12
 1084 0016 0FC4     		stmia	r4!, {r0, r1, r2, r3}
 1085 0018 2869     		ldr	r0, [r5, #16]	@ unaligned
 1086 001a 6969     		ldr	r1, [r5, #20]	@ unaligned
 1087 001c AA69     		ldr	r2, [r5, #24]	@ unaligned
 1088 001e EB69     		ldr	r3, [r5, #28]	@ unaligned
 1089 0020 D6F800C0 		ldr	ip, [r6]	@ unaligned
 1090 0024 D6F804E0 		ldr	lr, [r6, #4]	@ unaligned
 1091 0028 B768     		ldr	r7, [r6, #8]	@ unaligned
 1092 002a F668     		ldr	r6, [r6, #12]	@ unaligned
 1093 002c 0FC4     		stmia	r4!, {r0, r1, r2, r3}
 1094 002e 03A9     		add	r1, sp, #12
 1095 0030 0920     		movs	r0, #9
 1096 0032 01AA     		add	r2, sp, #4
 1097 0034 0623     		movs	r3, #6
 1098 0036 CDF83960 		str	r6, [sp, #57]	@ unaligned
 1099 003a 8DF82C80 		strb	r8, [sp, #44]
 1100 003e CDF82DC0 		str	ip, [sp, #45]	@ unaligned
 1101 0042 CDF831E0 		str	lr, [sp, #49]	@ unaligned
 1102 0046 CDF83570 		str	r7, [sp, #53]	@ unaligned
 1103 004a FFF7FEFF 		bl	execute_service
 1104 004e 0646     		mov	r6, r0
 1105 0050 50B9     		cbnz	r0, .L175
 1106 0052 03AC     		add	r4, sp, #12
 1107 0054 0FCC     		ldmia	r4!, {r0, r1, r2, r3}
 1108 0056 2860     		str	r0, [r5]	@ unaligned
 1109 0058 6960     		str	r1, [r5, #4]	@ unaligned
 1110 005a AA60     		str	r2, [r5, #8]	@ unaligned
 1111 005c EB60     		str	r3, [r5, #12]	@ unaligned
 1112 005e 0FCC     		ldmia	r4!, {r0, r1, r2, r3}
 1113 0060 2861     		str	r0, [r5, #16]	@ unaligned
 1114 0062 6961     		str	r1, [r5, #20]	@ unaligned
 1115 0064 AA61     		str	r2, [r5, #24]	@ unaligned
 1116 0066 EB61     		str	r3, [r5, #28]	@ unaligned
 1117              	.L175:
 1118 0068 3046     		mov	r0, r6
 1119 006a 10B0     		add	sp, sp, #64
 1120              		@ sp needed
 1121 006c BDE8F081 		pop	{r4, r5, r6, r7, r8, pc}
 1123              		.section	.text.MSS_SYS_challenge_response,"ax",%progbits
 1124              		.align	2
 1125              		.global	MSS_SYS_challenge_response
 1126              		.thumb
 1127              		.thumb_func
 1129              	MSS_SYS_challenge_response:
 1130              		@ args = 0, pretend = 0, frame = 32
 1131              		@ frame_needed = 0, uses_anonymous_args = 0
 1132 0000 2DE9F043 		push	{r4, r5, r6, r7, r8, r9, lr}
 1133 0004 0446     		mov	r4, r0
 1134 0006 89B0     		sub	sp, sp, #36
 1135 0008 D2F80090 		ldr	r9, [r2]	@ unaligned
 1136 000c D2F80480 		ldr	r8, [r2, #4]	@ unaligned
 1137 0010 D2F808C0 		ldr	ip, [r2, #8]	@ unaligned
 1138 0014 D2F80CE0 		ldr	lr, [r2, #12]	@ unaligned
 1139 0018 8DF80C10 		strb	r1, [sp, #12]
 1140 001c 070A     		lsrs	r7, r0, #8
 1141 001e 060C     		lsrs	r6, r0, #16
 1142 0020 050E     		lsrs	r5, r0, #24
 1143 0022 02A9     		add	r1, sp, #8
 1144 0024 6A46     		mov	r2, sp
 1145 0026 0623     		movs	r3, #6
 1146 0028 0E20     		movs	r0, #14
 1147 002a 8DF80840 		strb	r4, [sp, #8]
 1148 002e CDF80D90 		str	r9, [sp, #13]	@ unaligned
 1149 0032 CDF81180 		str	r8, [sp, #17]	@ unaligned
 1150 0036 CDF815C0 		str	ip, [sp, #21]	@ unaligned
 1151 003a CDF819E0 		str	lr, [sp, #25]	@ unaligned
 1152 003e 8DF80970 		strb	r7, [sp, #9]
 1153 0042 8DF80A60 		strb	r6, [sp, #10]
 1154 0046 8DF80B50 		strb	r5, [sp, #11]
 1155 004a FFF7FEFF 		bl	execute_service
 1156 004e 09B0     		add	sp, sp, #36
 1157              		@ sp needed
 1158 0050 BDE8F083 		pop	{r4, r5, r6, r7, r8, r9, pc}
 1160              		.section	.text.MSS_SYS_nrbg_reset,"ax",%progbits
 1161              		.align	2
 1162              		.global	MSS_SYS_nrbg_reset
 1163              		.thumb
 1164              		.thumb_func
 1166              	MSS_SYS_nrbg_reset:
 1167              		@ args = 0, pretend = 0, frame = 8
 1168              		@ frame_needed = 0, uses_anonymous_args = 0
 1169 0000 F0B5     		push	{r4, r5, r6, r7, lr}
 1170 0002 1A4C     		ldr	r4, .L189
 1171 0004 87B0     		sub	sp, sp, #28
 1172              	.L180:
 1173 0006 2378     		ldrb	r3, [r4]	@ zero_extendqisi2
 1174 0008 184E     		ldr	r6, .L189
 1175 000a 03F0FF05 		and	r5, r3, #255
 1176 000e 002B     		cmp	r3, #0
 1177 0010 F9D1     		bne	.L180
 1178 0012 1749     		ldr	r1, .L189+4
 1179 0014 174F     		ldr	r7, .L189+8
 1180 0016 04AA     		add	r2, sp, #16
 1181 0018 0223     		movs	r3, #2
 1182 001a 4FF0010C 		mov	ip, #1
 1183 001e 8DE80C00 		stmia	sp, {r2, r3}
 1184 0022 0291     		str	r1, [sp, #8]
 1185 0024 4FF02D0E 		mov	lr, #45
 1186 0028 86F800C0 		strb	ip, [r6]
 1187 002c 05A8     		add	r0, sp, #20
 1188 002e 0421     		movs	r1, #4
 1189 0030 2A46     		mov	r2, r5
 1190 0032 2B46     		mov	r3, r5
 1191 0034 3D80     		strh	r5, [r7]	@ movhi
 1192 0036 8DF81550 		strb	r5, [sp, #21]
 1193 003a 8DF81650 		strb	r5, [sp, #22]
 1194 003e 8DF81750 		strb	r5, [sp, #23]
 1195 0042 8DF814E0 		strb	lr, [sp, #20]
 1196 0046 FFF7FEFF 		bl	MSS_COMBLK_send_cmd
 1197              	.L181:
 1198 004a 2378     		ldrb	r3, [r4]	@ zero_extendqisi2
 1199 004c 002B     		cmp	r3, #0
 1200 004e FCD1     		bne	.L181
 1201 0050 3B88     		ldrh	r3, [r7]
 1202 0052 9BB2     		uxth	r3, r3
 1203 0054 022B     		cmp	r3, #2
 1204 0056 02D0     		beq	.L188
 1205              	.L184:
 1206 0058 C820     		movs	r0, #200
 1207              	.L182:
 1208 005a 07B0     		add	sp, sp, #28
 1209              		@ sp needed
 1210 005c F0BD     		pop	{r4, r5, r6, r7, pc}
 1211              	.L188:
 1212 005e 9DF81030 		ldrb	r3, [sp, #16]	@ zero_extendqisi2
 1213 0062 2D2B     		cmp	r3, #45
 1214 0064 F8D1     		bne	.L184
 1215 0066 9DF81100 		ldrb	r0, [sp, #17]	@ zero_extendqisi2
 1216 006a F6E7     		b	.L182
 1217              	.L190:
 1218              		.align	2
 1219              	.L189:
 1220 006c 00000000 		.word	.LANCHOR16
 1221 0070 00000000 		.word	request_completion_handler
 1222 0074 00000000 		.word	.LANCHOR17
 1224              		.section	.text.MSS_SYS_nrbg_self_test,"ax",%progbits
 1225              		.align	2
 1226              		.global	MSS_SYS_nrbg_self_test
 1227              		.thumb
 1228              		.thumb_func
 1230              	MSS_SYS_nrbg_self_test:
 1231              		@ args = 0, pretend = 0, frame = 8
 1232              		@ frame_needed = 0, uses_anonymous_args = 0
 1233 0000 F0B5     		push	{r4, r5, r6, r7, lr}
 1234 0002 174C     		ldr	r4, .L201
 1235 0004 87B0     		sub	sp, sp, #28
 1236              	.L192:
 1237 0006 2378     		ldrb	r3, [r4]	@ zero_extendqisi2
 1238 0008 154E     		ldr	r6, .L201
 1239 000a 03F0FF05 		and	r5, r3, #255
 1240 000e 002B     		cmp	r3, #0
 1241 0010 F9D1     		bne	.L192
 1242 0012 2823     		movs	r3, #40
 1243 0014 06A8     		add	r0, sp, #24
 1244 0016 DFF850C0 		ldr	ip, .L201+8
 1245 001a 124F     		ldr	r7, .L201+4
 1246 001c 00F8053D 		strb	r3, [r0, #-5]!
 1247 0020 4FF0010E 		mov	lr, #1
 1248 0024 05AA     		add	r2, sp, #20
 1249 0026 0223     		movs	r3, #2
 1250 0028 8DE80C10 		stmia	sp, {r2, r3, ip}
 1251 002c 86F800E0 		strb	lr, [r6]
 1252 0030 7146     		mov	r1, lr
 1253 0032 2A46     		mov	r2, r5
 1254 0034 2B46     		mov	r3, r5
 1255 0036 3D80     		strh	r5, [r7]	@ movhi
 1256 0038 FFF7FEFF 		bl	MSS_COMBLK_send_cmd
 1257              	.L193:
 1258 003c 2378     		ldrb	r3, [r4]	@ zero_extendqisi2
 1259 003e 002B     		cmp	r3, #0
 1260 0040 FCD1     		bne	.L193
 1261 0042 3B88     		ldrh	r3, [r7]
 1262 0044 9BB2     		uxth	r3, r3
 1263 0046 022B     		cmp	r3, #2
 1264 0048 02D0     		beq	.L200
 1265              	.L196:
 1266 004a C820     		movs	r0, #200
 1267              	.L194:
 1268 004c 07B0     		add	sp, sp, #28
 1269              		@ sp needed
 1270 004e F0BD     		pop	{r4, r5, r6, r7, pc}
 1271              	.L200:
 1272 0050 9DF81430 		ldrb	r3, [sp, #20]	@ zero_extendqisi2
 1273 0054 282B     		cmp	r3, #40
 1274 0056 F8D1     		bne	.L196
 1275 0058 9DF81500 		ldrb	r0, [sp, #21]	@ zero_extendqisi2
 1276 005c F6E7     		b	.L194
 1277              	.L202:
 1278 005e 00BF     		.align	2
 1279              	.L201:
 1280 0060 00000000 		.word	.LANCHOR16
 1281 0064 00000000 		.word	.LANCHOR17
 1282 0068 00000000 		.word	request_completion_handler
 1284              		.section	.text.MSS_SYS_nrbg_instantiate,"ax",%progbits
 1285              		.align	2
 1286              		.global	MSS_SYS_nrbg_instantiate
 1287              		.thumb
 1288              		.thumb_func
 1290              	MSS_SYS_nrbg_instantiate:
 1291              		@ args = 0, pretend = 0, frame = 16
 1292              		@ frame_needed = 0, uses_anonymous_args = 0
 1293 0000 2DE9F043 		push	{r4, r5, r6, r7, r8, r9, lr}
 1294 0004 0446     		mov	r4, r0
 1295 0006 0D46     		mov	r5, r1
 1296 0008 85B0     		sub	sp, sp, #20
 1297 000a 4FEA1129 		lsr	r9, r1, #8
 1298 000e 4FEA102C 		lsr	ip, r0, #8
 1299 0012 4FEA104E 		lsr	lr, r0, #16
 1300 0016 070E     		lsrs	r7, r0, #24
 1301 0018 9046     		mov	r8, r2
 1302 001a FF26     		movs	r6, #255
 1303 001c 2920     		movs	r0, #41
 1304 001e 02A9     		add	r1, sp, #8
 1305 0020 6A46     		mov	r2, sp
 1306 0022 0623     		movs	r3, #6
 1307 0024 8DF80840 		strb	r4, [sp, #8]
 1308 0028 8DF80C50 		strb	r5, [sp, #12]
 1309 002c 8DF80D90 		strb	r9, [sp, #13]
 1310 0030 8DF809C0 		strb	ip, [sp, #9]
 1311 0034 8DF80AE0 		strb	lr, [sp, #10]
 1312 0038 8DF80B70 		strb	r7, [sp, #11]
 1313 003c 8DF80E60 		strb	r6, [sp, #14]
 1314 0040 FFF7FEFF 		bl	execute_service
 1315 0044 18B9     		cbnz	r0, .L204
 1316 0046 9DF80E30 		ldrb	r3, [sp, #14]	@ zero_extendqisi2
 1317 004a 88F80030 		strb	r3, [r8]
 1318              	.L204:
 1319 004e 05B0     		add	sp, sp, #20
 1320              		@ sp needed
 1321 0050 BDE8F083 		pop	{r4, r5, r6, r7, r8, r9, pc}
 1323              		.section	.text.MSS_SYS_nrbg_generate,"ax",%progbits
 1324              		.align	2
 1325              		.global	MSS_SYS_nrbg_generate
 1326              		.thumb
 1327              		.thumb_func
 1329              	MSS_SYS_nrbg_generate:
 1330              		@ args = 8, pretend = 0, frame = 24
 1331              		@ frame_needed = 0, uses_anonymous_args = 0
 1332 0000 2DE9F04F 		push	{r4, r5, r6, r7, r8, r9, r10, fp, lr}
 1333 0004 0546     		mov	r5, r0
 1334 0006 0C46     		mov	r4, r1
 1335 0008 87B0     		sub	sp, sp, #28
 1336 000a 9DF84070 		ldrb	r7, [sp, #64]	@ zero_extendqisi2
 1337 000e 9DF84460 		ldrb	r6, [sp, #68]	@ zero_extendqisi2
 1338 0012 4FEA114C 		lsr	ip, r1, #16
 1339 0016 4FEA116E 		lsr	lr, r1, #24
 1340 001a 8DF81420 		strb	r2, [sp, #20]
 1341 001e 8DF81530 		strb	r3, [sp, #21]
 1342 0022 4FEA102B 		lsr	fp, r0, #8
 1343 0026 4FEA104A 		lsr	r10, r0, #16
 1344 002a 4FEA1069 		lsr	r9, r0, #24
 1345 002e 4FEA1128 		lsr	r8, r1, #8
 1346 0032 01AA     		add	r2, sp, #4
 1347 0034 03A9     		add	r1, sp, #12
 1348 0036 0623     		movs	r3, #6
 1349 0038 2A20     		movs	r0, #42
 1350 003a 8DF80C50 		strb	r5, [sp, #12]
 1351 003e 8DF81040 		strb	r4, [sp, #16]
 1352 0042 8DF80DB0 		strb	fp, [sp, #13]
 1353 0046 8DF80EA0 		strb	r10, [sp, #14]
 1354 004a 8DF80F90 		strb	r9, [sp, #15]
 1355 004e 8DF81180 		strb	r8, [sp, #17]
 1356 0052 8DF812C0 		strb	ip, [sp, #18]
 1357 0056 8DF813E0 		strb	lr, [sp, #19]
 1358 005a 8DF81670 		strb	r7, [sp, #22]
 1359 005e 8DF81760 		strb	r6, [sp, #23]
 1360 0062 FFF7FEFF 		bl	execute_service
 1361 0066 07B0     		add	sp, sp, #28
 1362              		@ sp needed
 1363 0068 BDE8F08F 		pop	{r4, r5, r6, r7, r8, r9, r10, fp, pc}
 1365              		.section	.text.MSS_SYS_nrbg_reseed,"ax",%progbits
 1366              		.align	2
 1367              		.global	MSS_SYS_nrbg_reseed
 1368              		.thumb
 1369              		.thumb_func
 1371              	MSS_SYS_nrbg_reseed:
 1372              		@ args = 0, pretend = 0, frame = 16
 1373              		@ frame_needed = 0, uses_anonymous_args = 0
 1374 0000 F0B5     		push	{r4, r5, r6, r7, lr}
 1375 0002 0446     		mov	r4, r0
 1376 0004 85B0     		sub	sp, sp, #20
 1377 0006 8DF80C10 		strb	r1, [sp, #12]
 1378 000a 8DF80D20 		strb	r2, [sp, #13]
 1379 000e 070A     		lsrs	r7, r0, #8
 1380 0010 060C     		lsrs	r6, r0, #16
 1381 0012 050E     		lsrs	r5, r0, #24
 1382 0014 02A9     		add	r1, sp, #8
 1383 0016 6A46     		mov	r2, sp
 1384 0018 0623     		movs	r3, #6
 1385 001a 2B20     		movs	r0, #43
 1386 001c 8DF80840 		strb	r4, [sp, #8]
 1387 0020 8DF80970 		strb	r7, [sp, #9]
 1388 0024 8DF80A60 		strb	r6, [sp, #10]
 1389 0028 8DF80B50 		strb	r5, [sp, #11]
 1390 002c FFF7FEFF 		bl	execute_service
 1391 0030 05B0     		add	sp, sp, #20
 1392              		@ sp needed
 1393 0032 F0BD     		pop	{r4, r5, r6, r7, pc}
 1395              		.section	.text.MSS_SYS_nrbg_uninstantiate,"ax",%progbits
 1396              		.align	2
 1397              		.global	MSS_SYS_nrbg_uninstantiate
 1398              		.thumb
 1399              		.thumb_func
 1401              	MSS_SYS_nrbg_uninstantiate:
 1402              		@ args = 0, pretend = 0, frame = 8
 1403              		@ frame_needed = 0, uses_anonymous_args = 0
 1404 0000 2DE9F041 		push	{r4, r5, r6, r7, r8, lr}
 1405 0004 8046     		mov	r8, r0
 1406 0006 194C     		ldr	r4, .L220
 1407 0008 86B0     		sub	sp, sp, #24
 1408              	.L211:
 1409 000a 2378     		ldrb	r3, [r4]	@ zero_extendqisi2
 1410 000c 174E     		ldr	r6, .L220
 1411 000e 03F0FF05 		and	r5, r3, #255
 1412 0012 002B     		cmp	r3, #0
 1413 0014 F9D1     		bne	.L211
 1414 0016 1649     		ldr	r1, .L220+4
 1415 0018 164F     		ldr	r7, .L220+8
 1416 001a 05AA     		add	r2, sp, #20
 1417 001c 0323     		movs	r3, #3
 1418 001e 4FF0010C 		mov	ip, #1
 1419 0022 8DE80C00 		stmia	sp, {r2, r3}
 1420 0026 0291     		str	r1, [sp, #8]
 1421 0028 4FF02C0E 		mov	lr, #44
 1422 002c 86F800C0 		strb	ip, [r6]
 1423 0030 04A8     		add	r0, sp, #16
 1424 0032 0221     		movs	r1, #2
 1425 0034 2A46     		mov	r2, r5
 1426 0036 2B46     		mov	r3, r5
 1427 0038 3D80     		strh	r5, [r7]	@ movhi
 1428 003a 8DF81180 		strb	r8, [sp, #17]
 1429 003e 8DF810E0 		strb	lr, [sp, #16]
 1430 0042 FFF7FEFF 		bl	MSS_COMBLK_send_cmd
 1431              	.L212:
 1432 0046 2378     		ldrb	r3, [r4]	@ zero_extendqisi2
 1433 0048 002B     		cmp	r3, #0
 1434 004a FCD1     		bne	.L212
 1435 004c 3B88     		ldrh	r3, [r7]
 1436 004e 9BB2     		uxth	r3, r3
 1437 0050 032B     		cmp	r3, #3
 1438 0052 03D0     		beq	.L219
 1439              	.L215:
 1440 0054 C820     		movs	r0, #200
 1441              	.L213:
 1442 0056 06B0     		add	sp, sp, #24
 1443              		@ sp needed
 1444 0058 BDE8F081 		pop	{r4, r5, r6, r7, r8, pc}
 1445              	.L219:
 1446 005c 9DF81430 		ldrb	r3, [sp, #20]	@ zero_extendqisi2
 1447 0060 2C2B     		cmp	r3, #44
 1448 0062 F7D1     		bne	.L215
 1449 0064 9DF81500 		ldrb	r0, [sp, #21]	@ zero_extendqisi2
 1450 0068 F5E7     		b	.L213
 1451              	.L221:
 1452 006a 00BF     		.align	2
 1453              	.L220:
 1454 006c 00000000 		.word	.LANCHOR16
 1455 0070 00000000 		.word	request_completion_handler
 1456 0074 00000000 		.word	.LANCHOR17
 1458              		.section	.text.MSS_SYS_zeroize_device,"ax",%progbits
 1459              		.align	2
 1460              		.global	MSS_SYS_zeroize_device
 1461              		.thumb
 1462              		.thumb_func
 1464              	MSS_SYS_zeroize_device:
 1465              		@ args = 0, pretend = 0, frame = 8
 1466              		@ frame_needed = 0, uses_anonymous_args = 0
 1467 0000 F0B5     		push	{r4, r5, r6, r7, lr}
 1468 0002 F023     		movs	r3, #240
 1469 0004 87B0     		sub	sp, sp, #28
 1470 0006 104C     		ldr	r4, .L228
 1471 0008 8DF81730 		strb	r3, [sp, #23]
 1472              	.L223:
 1473 000c 2378     		ldrb	r3, [r4]	@ zero_extendqisi2
 1474 000e 0E4E     		ldr	r6, .L228
 1475 0010 03F0FF05 		and	r5, r3, #255
 1476 0014 002B     		cmp	r3, #0
 1477 0016 F9D1     		bne	.L223
 1478 0018 0C4B     		ldr	r3, .L228+4
 1479 001a 0D4F     		ldr	r7, .L228+8
 1480 001c 4FF0010E 		mov	lr, #1
 1481 0020 0293     		str	r3, [sp, #8]
 1482 0022 0095     		str	r5, [sp]
 1483 0024 0195     		str	r5, [sp, #4]
 1484 0026 86F800E0 		strb	lr, [r6]
 1485 002a 7146     		mov	r1, lr
 1486 002c 0DF11700 		add	r0, sp, #23
 1487 0030 2A46     		mov	r2, r5
 1488 0032 2B46     		mov	r3, r5
 1489 0034 3D80     		strh	r5, [r7]	@ movhi
 1490 0036 FFF7FEFF 		bl	MSS_COMBLK_send_cmd
 1491              	.L224:
 1492 003a 2378     		ldrb	r3, [r4]	@ zero_extendqisi2
 1493 003c 002B     		cmp	r3, #0
 1494 003e FCD1     		bne	.L224
 1495 0040 3B88     		ldrh	r3, [r7]
 1496 0042 07B0     		add	sp, sp, #28
 1497              		@ sp needed
 1498 0044 F0BD     		pop	{r4, r5, r6, r7, pc}
 1499              	.L229:
 1500 0046 00BF     		.align	2
 1501              	.L228:
 1502 0048 00000000 		.word	.LANCHOR16
 1503 004c 00000000 		.word	request_completion_handler
 1504 0050 00000000 		.word	.LANCHOR17
 1506              		.section	.text.MSS_SYS_check_digest,"ax",%progbits
 1507              		.align	2
 1508              		.global	MSS_SYS_check_digest
 1509              		.thumb
 1510              		.thumb_func
 1512              	MSS_SYS_check_digest:
 1513              		@ args = 0, pretend = 0, frame = 8
 1514              		@ frame_needed = 0, uses_anonymous_args = 0
 1515 0000 2DE9F041 		push	{r4, r5, r6, r7, r8, lr}
 1516 0004 C307     		lsls	r3, r0, #31
 1517 0006 86B0     		sub	sp, sp, #24
 1518 0008 0746     		mov	r7, r0
 1519 000a 2BD4     		bmi	.L245
 1520              	.L240:
 1521 000c 2B4C     		ldr	r4, .L247
 1522              	.L233:
 1523 000e 2378     		ldrb	r3, [r4]	@ zero_extendqisi2
 1524 0010 2A4E     		ldr	r6, .L247
 1525 0012 03F0FF05 		and	r5, r3, #255
 1526 0016 002B     		cmp	r3, #0
 1527 0018 F9D1     		bne	.L233
 1528 001a 294A     		ldr	r2, .L247+4
 1529 001c 05AB     		add	r3, sp, #20
 1530 001e DFF8B080 		ldr	r8, .L247+20
 1531 0022 0221     		movs	r1, #2
 1532 0024 4FF0010C 		mov	ip, #1
 1533 0028 0292     		str	r2, [sp, #8]
 1534 002a 0093     		str	r3, [sp]
 1535 002c 4FF0170E 		mov	lr, #23
 1536 0030 0191     		str	r1, [sp, #4]
 1537 0032 04A8     		add	r0, sp, #16
 1538 0034 2A46     		mov	r2, r5
 1539 0036 2B46     		mov	r3, r5
 1540 0038 86F800C0 		strb	ip, [r6]
 1541 003c 8DF81170 		strb	r7, [sp, #17]
 1542 0040 8DF810E0 		strb	lr, [sp, #16]
 1543 0044 A8F80050 		strh	r5, [r8]	@ movhi
 1544 0048 FFF7FEFF 		bl	MSS_COMBLK_send_cmd
 1545              	.L234:
 1546 004c 2378     		ldrb	r3, [r4]	@ zero_extendqisi2
 1547 004e 002B     		cmp	r3, #0
 1548 0050 FCD1     		bne	.L234
 1549 0052 B8F80030 		ldrh	r3, [r8]
 1550 0056 9BB2     		uxth	r3, r3
 1551 0058 022B     		cmp	r3, #2
 1552 005a 28D0     		beq	.L246
 1553              	.L239:
 1554 005c C820     		movs	r0, #200
 1555              	.L232:
 1556 005e 06B0     		add	sp, sp, #24
 1557              		@ sp needed
 1558 0060 BDE8F081 		pop	{r4, r5, r6, r7, r8, pc}
 1559              	.L245:
 1560 0064 174B     		ldr	r3, .L247+8
 1561 0066 1848     		ldr	r0, .L247+12
 1562 0068 DA68     		ldr	r2, [r3, #12]
 1563 006a 1849     		ldr	r1, .L247+16
 1564 006c 0260     		str	r2, [r0]
 1565 006e D3F89C00 		ldr	r0, [r3, #156]
 1566 0072 42F4FF52 		orr	r2, r2, #8160
 1567 0076 0860     		str	r0, [r1]
 1568 0078 DA60     		str	r2, [r3, #12]
 1569 007a D3F89C20 		ldr	r2, [r3, #156]
 1570 007e 22F4E072 		bic	r2, r2, #448
 1571 0082 C3F89C20 		str	r2, [r3, #156]
 1572 0086 D3F89C20 		ldr	r2, [r3, #156]
 1573 008a 42F40072 		orr	r2, r2, #512
 1574 008e C3F89C20 		str	r2, [r3, #156]
 1575 0092 D3F89C20 		ldr	r2, [r3, #156]
 1576 0096 42F48062 		orr	r2, r2, #1024
 1577 009a C3F89C20 		str	r2, [r3, #156]
 1578 009e FFF7FEFF 		bl	clk_switching_fix
 1579 00a2 0028     		cmp	r0, #0
 1580 00a4 B2D0     		beq	.L240
 1581 00a6 C920     		movs	r0, #201
 1582 00a8 06B0     		add	sp, sp, #24
 1583              		@ sp needed
 1584 00aa BDE8F081 		pop	{r4, r5, r6, r7, r8, pc}
 1585              	.L246:
 1586 00ae 9DF81430 		ldrb	r3, [sp, #20]	@ zero_extendqisi2
 1587 00b2 172B     		cmp	r3, #23
 1588 00b4 D2D1     		bne	.L239
 1589 00b6 9DF81500 		ldrb	r0, [sp, #21]	@ zero_extendqisi2
 1590 00ba D0E7     		b	.L232
 1591              	.L248:
 1592              		.align	2
 1593              	.L247:
 1594 00bc 00000000 		.word	.LANCHOR16
 1595 00c0 00000000 		.word	request_completion_handler
 1596 00c4 00800340 		.word	1073971200
 1597 00c8 00000000 		.word	.LANCHOR13
 1598 00cc 00000000 		.word	.LANCHOR14
 1599 00d0 00000000 		.word	.LANCHOR17
 1601              		.section	.text.MSS_SYS_start_isp,"ax",%progbits
 1602              		.align	2
 1603              		.global	MSS_SYS_start_isp
 1604              		.thumb
 1605              		.thumb_func
 1607              	MSS_SYS_start_isp:
 1608              		@ args = 0, pretend = 0, frame = 8
 1609              		@ frame_needed = 0, uses_anonymous_args = 0
 1610 0000 2DE9F04F 		push	{r4, r5, r6, r7, r8, r9, r10, fp, lr}
 1611 0004 0228     		cmp	r0, #2
 1612 0006 85B0     		sub	sp, sp, #20
 1613 0008 0546     		mov	r5, r0
 1614 000a 0F46     		mov	r7, r1
 1615 000c 9046     		mov	r8, r2
 1616 000e 55D0     		beq	.L261
 1617 0010 3C4B     		ldr	r3, .L263
 1618 0012 1870     		strb	r0, [r3]
 1619 0014 50BB     		cbnz	r0, .L262
 1620              	.L257:
 1621 0016 3C4A     		ldr	r2, .L263+4
 1622              	.L254:
 1623 0018 1378     		ldrb	r3, [r2]	@ zero_extendqisi2
 1624 001a 3B4E     		ldr	r6, .L263+4
 1625 001c 03F0FF04 		and	r4, r3, #255
 1626 0020 002B     		cmp	r3, #0
 1627 0022 F9D1     		bne	.L254
 1628 0024 394A     		ldr	r2, .L263+8
 1629 0026 3A4B     		ldr	r3, .L263+12
 1630 0028 DFF8FCC0 		ldr	ip, .L263+36
 1631 002c 0221     		movs	r1, #2
 1632 002e DFF8FC90 		ldr	r9, .L263+40
 1633 0032 DFF8FCA0 		ldr	r10, .L263+44
 1634 0036 4FF0010B 		mov	fp, #1
 1635 003a 8DE80C00 		stmia	sp, {r2, r3}
 1636 003e 4FF0150E 		mov	lr, #21
 1637 0042 03A8     		add	r0, sp, #12
 1638 0044 86F800B0 		strb	fp, [r6]
 1639 0048 0B46     		mov	r3, r1
 1640 004a 324A     		ldr	r2, .L263+16
 1641 004c 8DF80D50 		strb	r5, [sp, #13]
 1642 0050 CAF80080 		str	r8, [r10]
 1643 0054 A9F80040 		strh	r4, [r9]	@ movhi
 1644 0058 CCF80070 		str	r7, [ip]
 1645 005c 8DF80CE0 		strb	lr, [sp, #12]
 1646 0060 FFF7FEFF 		bl	MSS_COMBLK_send_paged_cmd
 1647 0064 2046     		mov	r0, r4
 1648 0066 05B0     		add	sp, sp, #20
 1649              		@ sp needed
 1650 0068 BDE8F08F 		pop	{r4, r5, r6, r7, r8, r9, r10, fp, pc}
 1651              	.L262:
 1652 006c 2A4E     		ldr	r6, .L263+20
 1653 006e 2B4C     		ldr	r4, .L263+24
 1654              	.L251:
 1655 0070 2B4B     		ldr	r3, .L263+28
 1656 0072 DA68     		ldr	r2, [r3, #12]
 1657 0074 3260     		str	r2, [r6]
 1658 0076 D3F89C10 		ldr	r1, [r3, #156]
 1659 007a 42F4FF52 		orr	r2, r2, #8160
 1660 007e 2160     		str	r1, [r4]
 1661 0080 DA60     		str	r2, [r3, #12]
 1662 0082 D3F89C20 		ldr	r2, [r3, #156]
 1663 0086 22F4E072 		bic	r2, r2, #448
 1664 008a C3F89C20 		str	r2, [r3, #156]
 1665 008e D3F89C20 		ldr	r2, [r3, #156]
 1666 0092 42F40072 		orr	r2, r2, #512
 1667 0096 C3F89C20 		str	r2, [r3, #156]
 1668 009a D3F89C20 		ldr	r2, [r3, #156]
 1669 009e 42F48062 		orr	r2, r2, #1024
 1670 00a2 C3F89C20 		str	r2, [r3, #156]
 1671 00a6 FFF7FEFF 		bl	clk_switching_fix
 1672 00aa 1E4B     		ldr	r3, .L263+32
 1673 00ac 0122     		movs	r2, #1
 1674 00ae 1A70     		strb	r2, [r3]
 1675 00b0 0028     		cmp	r0, #0
 1676 00b2 B0D0     		beq	.L257
 1677 00b4 C920     		movs	r0, #201
 1678 00b6 05B0     		add	sp, sp, #20
 1679              		@ sp needed
 1680 00b8 BDE8F08F 		pop	{r4, r5, r6, r7, r8, r9, r10, fp, pc}
 1681              	.L261:
 1682 00bc 184B     		ldr	r3, .L263+28
 1683 00be 164E     		ldr	r6, .L263+20
 1684 00c0 DA68     		ldr	r2, [r3, #12]
 1685 00c2 164C     		ldr	r4, .L263+24
 1686 00c4 3260     		str	r2, [r6]
 1687 00c6 D3F89C10 		ldr	r1, [r3, #156]
 1688 00ca 42F4FF52 		orr	r2, r2, #8160
 1689 00ce 2160     		str	r1, [r4]
 1690 00d0 DA60     		str	r2, [r3, #12]
 1691 00d2 D3F89C20 		ldr	r2, [r3, #156]
 1692 00d6 0120     		movs	r0, #1
 1693 00d8 22F4E072 		bic	r2, r2, #448
 1694 00dc C3F89C20 		str	r2, [r3, #156]
 1695 00e0 D3F89C20 		ldr	r2, [r3, #156]
 1696 00e4 42F40072 		orr	r2, r2, #512
 1697 00e8 C3F89C20 		str	r2, [r3, #156]
 1698 00ec D3F89C20 		ldr	r2, [r3, #156]
 1699 00f0 42F48062 		orr	r2, r2, #1024
 1700 00f4 C3F89C20 		str	r2, [r3, #156]
 1701 00f8 FFF7FEFF 		bl	MSS_SYS_check_digest
 1702 00fc 014B     		ldr	r3, .L263
 1703 00fe 1D70     		strb	r5, [r3]
 1704 0100 B6E7     		b	.L251
 1705              	.L264:
 1706 0102 00BF     		.align	2
 1707              	.L263:
 1708 0104 00000000 		.word	.LANCHOR11
 1709 0108 00000000 		.word	.LANCHOR16
 1710 010c 00000000 		.word	isp_page_read_handler
 1711 0110 00000000 		.word	isp_sys_completion_handler
 1712 0114 00000000 		.word	.LANCHOR18
 1713 0118 00000000 		.word	.LANCHOR13
 1714 011c 00000000 		.word	.LANCHOR14
 1715 0120 00800340 		.word	1073971200
 1716 0124 00000000 		.word	.LANCHOR10
 1717 0128 00000000 		.word	.LANCHOR12
 1718 012c 00000000 		.word	.LANCHOR17
 1719 0130 00000000 		.word	.LANCHOR15
 1721              		.section	.text.MSS_SYS_initiate_iap,"ax",%progbits
 1722              		.align	2
 1723              		.global	MSS_SYS_initiate_iap
 1724              		.thumb
 1725              		.thumb_func
 1727              	MSS_SYS_initiate_iap:
 1728              		@ args = 0, pretend = 0, frame = 16
 1729              		@ frame_needed = 0, uses_anonymous_args = 0
 1730 0000 2DE9F041 		push	{r4, r5, r6, r7, r8, lr}
 1731 0004 0228     		cmp	r0, #2
 1732 0006 88B0     		sub	sp, sp, #32
 1733 0008 0746     		mov	r7, r0
 1734 000a 0C46     		mov	r4, r1
 1735 000c 41D0     		beq	.L284
 1736 000e 0028     		cmp	r0, #0
 1737 0010 42D1     		bne	.L267
 1738              	.L269:
 1739 0012 210A     		lsrs	r1, r4, #8
 1740 0014 220C     		lsrs	r2, r4, #16
 1741 0016 230E     		lsrs	r3, r4, #24
 1742 0018 1420     		movs	r0, #20
 1743 001a 8DF81A40 		strb	r4, [sp, #26]
 1744 001e 344C     		ldr	r4, .L286
 1745 0020 8DF81970 		strb	r7, [sp, #25]
 1746 0024 8DF81800 		strb	r0, [sp, #24]
 1747 0028 8DF81B10 		strb	r1, [sp, #27]
 1748 002c 8DF81C20 		strb	r2, [sp, #28]
 1749 0030 8DF81D30 		strb	r3, [sp, #29]
 1750              	.L268:
 1751 0034 2378     		ldrb	r3, [r4]	@ zero_extendqisi2
 1752 0036 2E4E     		ldr	r6, .L286
 1753 0038 03F0FF05 		and	r5, r3, #255
 1754 003c 002B     		cmp	r3, #0
 1755 003e F9D1     		bne	.L268
 1756 0040 2C49     		ldr	r1, .L286+4
 1757 0042 05AA     		add	r2, sp, #20
 1758 0044 0223     		movs	r3, #2
 1759 0046 DFF8BC80 		ldr	r8, .L286+20
 1760 004a 8DE80C00 		stmia	sp, {r2, r3}
 1761 004e 4FF0010E 		mov	lr, #1
 1762 0052 0291     		str	r1, [sp, #8]
 1763 0054 06A8     		add	r0, sp, #24
 1764 0056 0621     		movs	r1, #6
 1765 0058 2A46     		mov	r2, r5
 1766 005a 2B46     		mov	r3, r5
 1767 005c 86F800E0 		strb	lr, [r6]
 1768 0060 A8F80050 		strh	r5, [r8]	@ movhi
 1769 0064 FFF7FEFF 		bl	MSS_COMBLK_send_cmd
 1770              	.L271:
 1771 0068 2378     		ldrb	r3, [r4]	@ zero_extendqisi2
 1772 006a 002B     		cmp	r3, #0
 1773 006c FCD1     		bne	.L271
 1774 006e B8F80030 		ldrh	r3, [r8]
 1775 0072 9BB2     		uxth	r3, r3
 1776 0074 022B     		cmp	r3, #2
 1777 0076 34D0     		beq	.L285
 1778              	.L274:
 1779 0078 C820     		movs	r0, #200
 1780              	.L272:
 1781 007a 3FB1     		cbz	r7, .L270
 1782 007c 1E4A     		ldr	r2, .L286+8
 1783 007e 1F4B     		ldr	r3, .L286+12
 1784 0080 1168     		ldr	r1, [r2]
 1785 0082 1F4A     		ldr	r2, .L286+16
 1786 0084 D960     		str	r1, [r3, #12]
 1787 0086 1268     		ldr	r2, [r2]
 1788 0088 C3F89C20 		str	r2, [r3, #156]
 1789              	.L270:
 1790 008c 08B0     		add	sp, sp, #32
 1791              		@ sp needed
 1792 008e BDE8F081 		pop	{r4, r5, r6, r7, r8, pc}
 1793              	.L284:
 1794 0092 0120     		movs	r0, #1
 1795 0094 FFF7FEFF 		bl	MSS_SYS_check_digest
 1796              	.L267:
 1797 0098 184B     		ldr	r3, .L286+12
 1798 009a 1748     		ldr	r0, .L286+8
 1799 009c DA68     		ldr	r2, [r3, #12]
 1800 009e 1849     		ldr	r1, .L286+16
 1801 00a0 0260     		str	r2, [r0]
 1802 00a2 D3F89C00 		ldr	r0, [r3, #156]
 1803 00a6 42F4FF52 		orr	r2, r2, #8160
 1804 00aa 0860     		str	r0, [r1]
 1805 00ac DA60     		str	r2, [r3, #12]
 1806 00ae D3F89C20 		ldr	r2, [r3, #156]
 1807 00b2 22F4E072 		bic	r2, r2, #448
 1808 00b6 C3F89C20 		str	r2, [r3, #156]
 1809 00ba D3F89C20 		ldr	r2, [r3, #156]
 1810 00be 42F40072 		orr	r2, r2, #512
 1811 00c2 C3F89C20 		str	r2, [r3, #156]
 1812 00c6 D3F89C20 		ldr	r2, [r3, #156]
 1813 00ca 42F48062 		orr	r2, r2, #1024
 1814 00ce C3F89C20 		str	r2, [r3, #156]
 1815 00d2 FFF7FEFF 		bl	clk_switching_fix
 1816 00d6 0028     		cmp	r0, #0
 1817 00d8 9BD0     		beq	.L269
 1818 00da C920     		movs	r0, #201
 1819 00dc 08B0     		add	sp, sp, #32
 1820              		@ sp needed
 1821 00de BDE8F081 		pop	{r4, r5, r6, r7, r8, pc}
 1822              	.L285:
 1823 00e2 9DF81430 		ldrb	r3, [sp, #20]	@ zero_extendqisi2
 1824 00e6 142B     		cmp	r3, #20
 1825 00e8 C6D1     		bne	.L274
 1826 00ea 9DF81500 		ldrb	r0, [sp, #21]	@ zero_extendqisi2
 1827 00ee C4E7     		b	.L272
 1828              	.L287:
 1829              		.align	2
 1830              	.L286:
 1831 00f0 00000000 		.word	.LANCHOR16
 1832 00f4 00000000 		.word	request_completion_handler
 1833 00f8 00000000 		.word	.LANCHOR13
 1834 00fc 00800340 		.word	1073971200
 1835 0100 00000000 		.word	.LANCHOR14
 1836 0104 00000000 		.word	.LANCHOR17
 1838              		.section	.text.MSS_SYS_puf_get_number_of_keys,"ax",%progbits
 1839              		.align	2
 1840              		.global	MSS_SYS_puf_get_number_of_keys
 1841              		.thumb
 1842              		.thumb_func
 1844              	MSS_SYS_puf_get_number_of_keys:
 1845              		@ args = 0, pretend = 0, frame = 24
 1846              		@ frame_needed = 0, uses_anonymous_args = 0
 1847 0000 30B5     		push	{r4, r5, lr}
 1848 0002 87B0     		sub	sp, sp, #28
 1849 0004 0024     		movs	r4, #0
 1850 0006 0546     		mov	r5, r0
 1851 0008 03A9     		add	r1, sp, #12
 1852 000a 01AA     		add	r2, sp, #4
 1853 000c 0623     		movs	r3, #6
 1854 000e 1A20     		movs	r0, #26
 1855 0010 0194     		str	r4, [sp, #4]
 1856 0012 ADF80840 		strh	r4, [sp, #8]	@ movhi
 1857 0016 0394     		str	r4, [sp, #12]
 1858 0018 0494     		str	r4, [sp, #16]
 1859 001a ADF81440 		strh	r4, [sp, #20]	@ movhi
 1860 001e 8DF81640 		strb	r4, [sp, #22]
 1861 0022 FFF7FEFF 		bl	execute_service
 1862 0026 9DF81530 		ldrb	r3, [sp, #21]	@ zero_extendqisi2
 1863 002a 2B70     		strb	r3, [r5]
 1864 002c 07B0     		add	sp, sp, #28
 1865              		@ sp needed
 1866 002e 30BD     		pop	{r4, r5, pc}
 1868              		.section	.text.MSS_SYS_puf_create_activation_code,"ax",%progbits
 1869              		.align	2
 1870              		.global	MSS_SYS_puf_create_activation_code
 1871              		.thumb
 1872              		.thumb_func
 1874              	MSS_SYS_puf_create_activation_code:
 1875              		@ args = 0, pretend = 0, frame = 8
 1876              		@ frame_needed = 0, uses_anonymous_args = 0
 1877 0000 10B5     		push	{r4, lr}
 1878 0002 82B0     		sub	sp, sp, #8
 1879 0004 02A9     		add	r1, sp, #8
 1880 0006 0024     		movs	r4, #0
 1881 0008 01F8064D 		strb	r4, [r1, #-6]!
 1882 000c 01AA     		add	r2, sp, #4
 1883 000e 0223     		movs	r3, #2
 1884 0010 1920     		movs	r0, #25
 1885 0012 8DF80340 		strb	r4, [sp, #3]
 1886 0016 FFF7FEFF 		bl	execute_service
 1887 001a 0446     		mov	r4, r0
 1888 001c 0DF10300 		add	r0, sp, #3
 1889 0020 FFF7FEFF 		bl	MSS_SYS_puf_get_number_of_keys
 1890 0024 2046     		mov	r0, r4
 1891 0026 02B0     		add	sp, sp, #8
 1892              		@ sp needed
 1893 0028 10BD     		pop	{r4, pc}
 1895 002a 00BF     		.section	.text.MSS_SYS_puf_delete_activation_code,"ax",%progbits
 1896              		.align	2
 1897              		.global	MSS_SYS_puf_delete_activation_code
 1898              		.thumb
 1899              		.thumb_func
 1901              	MSS_SYS_puf_delete_activation_code:
 1902              		@ args = 0, pretend = 0, frame = 8
 1903              		@ frame_needed = 0, uses_anonymous_args = 0
 1904 0000 10B5     		push	{r4, lr}
 1905 0002 82B0     		sub	sp, sp, #8
 1906 0004 02A9     		add	r1, sp, #8
 1907 0006 0123     		movs	r3, #1
 1908 0008 01F8063D 		strb	r3, [r1, #-6]!
 1909 000c 01AA     		add	r2, sp, #4
 1910 000e 0223     		movs	r3, #2
 1911 0010 0024     		movs	r4, #0
 1912 0012 1920     		movs	r0, #25
 1913 0014 8DF80340 		strb	r4, [sp, #3]
 1914 0018 FFF7FEFF 		bl	execute_service
 1915 001c 0446     		mov	r4, r0
 1916 001e 0DF10300 		add	r0, sp, #3
 1917 0022 FFF7FEFF 		bl	MSS_SYS_puf_get_number_of_keys
 1918 0026 2046     		mov	r0, r4
 1919 0028 02B0     		add	sp, sp, #8
 1920              		@ sp needed
 1921 002a 10BD     		pop	{r4, pc}
 1923              		.section	.text.MSS_SYS_puf_enroll_key,"ax",%progbits
 1924              		.align	2
 1925              		.global	MSS_SYS_puf_enroll_key
 1926              		.thumb
 1927              		.thumb_func
 1929              	MSS_SYS_puf_enroll_key:
 1930              		@ args = 0, pretend = 0, frame = 24
 1931              		@ frame_needed = 0, uses_anonymous_args = 0
 1932 0000 2DE9F04F 		push	{r4, r5, r6, r7, r8, r9, r10, fp, lr}
 1933 0004 0024     		movs	r4, #0
 1934 0006 87B0     		sub	sp, sp, #28
 1935 0008 8DF80340 		strb	r4, [sp, #3]
 1936 000c 8346     		mov	fp, r0
 1937 000e 8A46     		mov	r10, r1
 1938 0010 1D46     		mov	r5, r3
 1939 0012 1446     		mov	r4, r2
 1940 0014 7AB3     		cbz	r2, .L298
 1941 0016 0123     		movs	r3, #1
 1942 0018 8DF80C30 		strb	r3, [sp, #12]
 1943              	.L296:
 1944 001c 4FEA142E 		lsr	lr, r4, #8
 1945 0020 4FEA156C 		lsr	ip, r5, #24
 1946 0024 270C     		lsrs	r7, r4, #16
 1947 0026 260E     		lsrs	r6, r4, #24
 1948 0028 03A9     		add	r1, sp, #12
 1949 002a 01AA     		add	r2, sp, #4
 1950 002c 0623     		movs	r3, #6
 1951 002e 4FEA1529 		lsr	r9, r5, #8
 1952 0032 4FEA1548 		lsr	r8, r5, #16
 1953 0036 1A20     		movs	r0, #26
 1954 0038 8DF81140 		strb	r4, [sp, #17]
 1955 003c 8DF810C0 		strb	ip, [sp, #16]
 1956 0040 8DF812E0 		strb	lr, [sp, #18]
 1957 0044 8DF80D50 		strb	r5, [sp, #13]
 1958 0048 8DF815B0 		strb	fp, [sp, #21]
 1959 004c 8DF816A0 		strb	r10, [sp, #22]
 1960 0050 8DF80E90 		strb	r9, [sp, #14]
 1961 0054 8DF80F80 		strb	r8, [sp, #15]
 1962 0058 8DF81370 		strb	r7, [sp, #19]
 1963 005c 8DF81460 		strb	r6, [sp, #20]
 1964 0060 FFF7FEFF 		bl	execute_service
 1965 0064 0446     		mov	r4, r0
 1966 0066 0DF10300 		add	r0, sp, #3
 1967 006a FFF7FEFF 		bl	MSS_SYS_puf_get_number_of_keys
 1968 006e 2046     		mov	r0, r4
 1969 0070 07B0     		add	sp, sp, #28
 1970              		@ sp needed
 1971 0072 BDE8F08F 		pop	{r4, r5, r6, r7, r8, r9, r10, fp, pc}
 1972              	.L298:
 1973 0076 0223     		movs	r3, #2
 1974 0078 8DF80C30 		strb	r3, [sp, #12]
 1975 007c CEE7     		b	.L296
 1977 007e 00BF     		.section	.text.MSS_SYS_puf_delete_key,"ax",%progbits
 1978              		.align	2
 1979              		.global	MSS_SYS_puf_delete_key
 1980              		.thumb
 1981              		.thumb_func
 1983              	MSS_SYS_puf_delete_key:
 1984              		@ args = 0, pretend = 0, frame = 24
 1985              		@ frame_needed = 0, uses_anonymous_args = 0
 1986 0000 30B5     		push	{r4, r5, lr}
 1987 0002 87B0     		sub	sp, sp, #28
 1988 0004 8DF81500 		strb	r0, [sp, #21]
 1989 0008 03A9     		add	r1, sp, #12
 1990 000a 01AA     		add	r2, sp, #4
 1991 000c 0623     		movs	r3, #6
 1992 000e 0025     		movs	r5, #0
 1993 0010 0524     		movs	r4, #5
 1994 0012 1A20     		movs	r0, #26
 1995 0014 8DF80C40 		strb	r4, [sp, #12]
 1996 0018 8DF80350 		strb	r5, [sp, #3]
 1997 001c FFF7FEFF 		bl	execute_service
 1998 0020 0446     		mov	r4, r0
 1999 0022 0DF10300 		add	r0, sp, #3
 2000 0026 FFF7FEFF 		bl	MSS_SYS_puf_get_number_of_keys
 2001 002a 2046     		mov	r0, r4
 2002 002c 07B0     		add	sp, sp, #28
 2003              		@ sp needed
 2004 002e 30BD     		pop	{r4, r5, pc}
 2006              		.section	.text.MSS_SYS_puf_fetch_key,"ax",%progbits
 2007              		.align	2
 2008              		.global	MSS_SYS_puf_fetch_key
 2009              		.thumb
 2010              		.thumb_func
 2012              	MSS_SYS_puf_fetch_key:
 2013              		@ args = 0, pretend = 0, frame = 16
 2014              		@ frame_needed = 0, uses_anonymous_args = 0
 2015 0000 F0B5     		push	{r4, r5, r6, r7, lr}
 2016 0002 0C68     		ldr	r4, [r1]
 2017 0004 85B0     		sub	sp, sp, #20
 2018 0006 0D46     		mov	r5, r1
 2019 0008 8DF80400 		strb	r0, [sp, #4]
 2020 000c 4FEA142E 		lsr	lr, r4, #8
 2021 0010 6946     		mov	r1, sp
 2022 0012 02AA     		add	r2, sp, #8
 2023 0014 270C     		lsrs	r7, r4, #16
 2024 0016 260E     		lsrs	r6, r4, #24
 2025 0018 0623     		movs	r3, #6
 2026 001a 1B20     		movs	r0, #27
 2027 001c 8DF80040 		strb	r4, [sp]
 2028 0020 8DF801E0 		strb	lr, [sp, #1]
 2029 0024 8DF80270 		strb	r7, [sp, #2]
 2030 0028 8DF80360 		strb	r6, [sp, #3]
 2031 002c FFF7FEFF 		bl	execute_service
 2032 0030 9DF80320 		ldrb	r2, [sp, #3]	@ zero_extendqisi2
 2033 0034 9DF80230 		ldrb	r3, [sp, #2]	@ zero_extendqisi2
 2034 0038 9DF80110 		ldrb	r1, [sp, #1]	@ zero_extendqisi2
 2035 003c 43EA0223 		orr	r3, r3, r2, lsl #8
 2036 0040 9DF80020 		ldrb	r2, [sp]	@ zero_extendqisi2
 2037 0044 41EA0323 		orr	r3, r1, r3, lsl #8
 2038 0048 42EA0323 		orr	r3, r2, r3, lsl #8
 2039 004c 2B60     		str	r3, [r5]
 2040 004e 05B0     		add	sp, sp, #20
 2041              		@ sp needed
 2042 0050 F0BD     		pop	{r4, r5, r6, r7, pc}
 2044 0052 00BF     		.section	.text.MSS_SYS_puf_export_keycodes,"ax",%progbits
 2045              		.align	2
 2046              		.global	MSS_SYS_puf_export_keycodes
 2047              		.thumb
 2048              		.thumb_func
 2050              	MSS_SYS_puf_export_keycodes:
 2051              		@ args = 0, pretend = 0, frame = 24
 2052              		@ frame_needed = 0, uses_anonymous_args = 0
 2053 0000 F0B5     		push	{r4, r5, r6, r7, lr}
 2054 0002 0446     		mov	r4, r0
 2055 0004 87B0     		sub	sp, sp, #28
 2056 0006 4FEA102E 		lsr	lr, r0, #8
 2057 000a 070C     		lsrs	r7, r0, #16
 2058 000c 060E     		lsrs	r6, r0, #24
 2059 000e 0325     		movs	r5, #3
 2060 0010 03A9     		add	r1, sp, #12
 2061 0012 01AA     		add	r2, sp, #4
 2062 0014 0623     		movs	r3, #6
 2063 0016 1A20     		movs	r0, #26
 2064 0018 8DF80D40 		strb	r4, [sp, #13]
 2065 001c 8DF80EE0 		strb	lr, [sp, #14]
 2066 0020 8DF80F70 		strb	r7, [sp, #15]
 2067 0024 8DF81060 		strb	r6, [sp, #16]
 2068 0028 8DF80C50 		strb	r5, [sp, #12]
 2069 002c FFF7FEFF 		bl	execute_service
 2070 0030 07B0     		add	sp, sp, #28
 2071              		@ sp needed
 2072 0032 F0BD     		pop	{r4, r5, r6, r7, pc}
 2074              		.section	.text.MSS_SYS_puf_import_keycodes,"ax",%progbits
 2075              		.align	2
 2076              		.global	MSS_SYS_puf_import_keycodes
 2077              		.thumb
 2078              		.thumb_func
 2080              	MSS_SYS_puf_import_keycodes:
 2081              		@ args = 0, pretend = 0, frame = 24
 2082              		@ frame_needed = 0, uses_anonymous_args = 0
 2083 0000 F0B5     		push	{r4, r5, r6, r7, lr}
 2084 0002 0446     		mov	r4, r0
 2085 0004 87B0     		sub	sp, sp, #28
 2086 0006 0425     		movs	r5, #4
 2087 0008 4FEA102E 		lsr	lr, r0, #8
 2088 000c 070C     		lsrs	r7, r0, #16
 2089 000e 060E     		lsrs	r6, r0, #24
 2090 0010 03A9     		add	r1, sp, #12
 2091 0012 0DEB0502 		add	r2, sp, r5
 2092 0016 0623     		movs	r3, #6
 2093 0018 1A20     		movs	r0, #26
 2094 001a 8DF80D40 		strb	r4, [sp, #13]
 2095 001e 8DF80EE0 		strb	lr, [sp, #14]
 2096 0022 8DF80F70 		strb	r7, [sp, #15]
 2097 0026 8DF81060 		strb	r6, [sp, #16]
 2098 002a 8DF80C50 		strb	r5, [sp, #12]
 2099 002e FFF7FEFF 		bl	execute_service
 2100 0032 07B0     		add	sp, sp, #28
 2101              		@ sp needed
 2102 0034 F0BD     		pop	{r4, r5, r6, r7, pc}
 2104 0036 00BF     		.section	.text.MSS_SYS_puf_fetch_ecc_public_key,"ax",%progbits
 2105              		.align	2
 2106              		.global	MSS_SYS_puf_fetch_ecc_public_key
 2107              		.thumb
 2108              		.thumb_func
 2110              	MSS_SYS_puf_fetch_ecc_public_key:
 2111              		@ args = 0, pretend = 0, frame = 16
 2112              		@ frame_needed = 0, uses_anonymous_args = 0
 2113 0000 F0B5     		push	{r4, r5, r6, r7, lr}
 2114 0002 0446     		mov	r4, r0
 2115 0004 85B0     		sub	sp, sp, #20
 2116 0006 070A     		lsrs	r7, r0, #8
 2117 0008 060C     		lsrs	r6, r0, #16
 2118 000a 050E     		lsrs	r5, r0, #24
 2119 000c 01A9     		add	r1, sp, #4
 2120 000e 02AA     		add	r2, sp, #8
 2121 0010 0623     		movs	r3, #6
 2122 0012 1C20     		movs	r0, #28
 2123 0014 8DF80440 		strb	r4, [sp, #4]
 2124 0018 8DF80570 		strb	r7, [sp, #5]
 2125 001c 8DF80660 		strb	r6, [sp, #6]
 2126 0020 8DF80750 		strb	r5, [sp, #7]
 2127 0024 FFF7FEFF 		bl	execute_service
 2128 0028 05B0     		add	sp, sp, #20
 2129              		@ sp needed
 2130 002a F0BD     		pop	{r4, r5, r6, r7, pc}
 2132              		.section	.text.MSS_SYS_puf_get_random_seed,"ax",%progbits
 2133              		.align	2
 2134              		.global	MSS_SYS_puf_get_random_seed
 2135              		.thumb
 2136              		.thumb_func
 2138              	MSS_SYS_puf_get_random_seed:
 2139              		@ args = 0, pretend = 0, frame = 16
 2140              		@ frame_needed = 0, uses_anonymous_args = 0
 2141 0000 F0B5     		push	{r4, r5, r6, r7, lr}
 2142 0002 0446     		mov	r4, r0
 2143 0004 85B0     		sub	sp, sp, #20
 2144 0006 070A     		lsrs	r7, r0, #8
 2145 0008 060C     		lsrs	r6, r0, #16
 2146 000a 050E     		lsrs	r5, r0, #24
 2147 000c 01A9     		add	r1, sp, #4
 2148 000e 02AA     		add	r2, sp, #8
 2149 0010 0623     		movs	r3, #6
 2150 0012 1D20     		movs	r0, #29
 2151 0014 8DF80440 		strb	r4, [sp, #4]
 2152 0018 8DF80570 		strb	r7, [sp, #5]
 2153 001c 8DF80660 		strb	r6, [sp, #6]
 2154 0020 8DF80750 		strb	r5, [sp, #7]
 2155 0024 FFF7FEFF 		bl	execute_service
 2156 0028 05B0     		add	sp, sp, #20
 2157              		@ sp needed
 2158 002a F0BD     		pop	{r4, r5, r6, r7, pc}
 2160              		.section	.text.MSS_SYS_ecc_point_multiplication,"ax",%progbits
 2161              		.align	2
 2162              		.global	MSS_SYS_ecc_point_multiplication
 2163              		.thumb
 2164              		.thumb_func
 2166              	MSS_SYS_ecc_point_multiplication:
 2167              		@ args = 0, pretend = 0, frame = 32
 2168              		@ frame_needed = 0, uses_anonymous_args = 0
 2169 0000 2DE9F04F 		push	{r4, r5, r6, r7, r8, r9, r10, fp, lr}
 2170 0004 1446     		mov	r4, r2
 2171 0006 0B46     		mov	r3, r1
 2172 0008 8346     		mov	fp, r0
 2173 000a 89B0     		sub	sp, sp, #36
 2174 000c 160A     		lsrs	r6, r2, #8
 2175 000e 150C     		lsrs	r5, r2, #16
 2176 0010 120E     		lsrs	r2, r2, #24
 2177 0012 0192     		str	r2, [sp, #4]
 2178 0014 8DF81C40 		strb	r4, [sp, #28]
 2179 0018 9DF80440 		ldrb	r4, [sp, #4]	@ zero_extendqisi2
 2180 001c 4FEA112C 		lsr	ip, r1, #8
 2181 0020 4FEA114E 		lsr	lr, r1, #16
 2182 0024 4FEA102A 		lsr	r10, r0, #8
 2183 0028 4FEA1049 		lsr	r9, r0, #16
 2184 002c 4FEA1068 		lsr	r8, r0, #24
 2185 0030 0F0E     		lsrs	r7, r1, #24
 2186 0032 8DF81830 		strb	r3, [sp, #24]
 2187 0036 05A9     		add	r1, sp, #20
 2188 0038 03AA     		add	r2, sp, #12
 2189 003a 0623     		movs	r3, #6
 2190 003c 1020     		movs	r0, #16
 2191 003e 8DF814B0 		strb	fp, [sp, #20]
 2192 0042 8DF815A0 		strb	r10, [sp, #21]
 2193 0046 8DF81690 		strb	r9, [sp, #22]
 2194 004a 8DF81780 		strb	r8, [sp, #23]
 2195 004e 8DF819C0 		strb	ip, [sp, #25]
 2196 0052 8DF81AE0 		strb	lr, [sp, #26]
 2197 0056 8DF81B70 		strb	r7, [sp, #27]
 2198 005a 8DF81D60 		strb	r6, [sp, #29]
 2199 005e 8DF81E50 		strb	r5, [sp, #30]
 2200 0062 8DF81F40 		strb	r4, [sp, #31]
 2201 0066 FFF7FEFF 		bl	execute_service
 2202 006a 09B0     		add	sp, sp, #36
 2203              		@ sp needed
 2204 006c BDE8F08F 		pop	{r4, r5, r6, r7, r8, r9, r10, fp, pc}
 2206              		.section	.text.MSS_SYS_ecc_point_addition,"ax",%progbits
 2207              		.align	2
 2208              		.global	MSS_SYS_ecc_point_addition
 2209              		.thumb
 2210              		.thumb_func
 2212              	MSS_SYS_ecc_point_addition:
 2213              		@ args = 0, pretend = 0, frame = 32
 2214              		@ frame_needed = 0, uses_anonymous_args = 0
 2215 0000 2DE9F04F 		push	{r4, r5, r6, r7, r8, r9, r10, fp, lr}
 2216 0004 1446     		mov	r4, r2
 2217 0006 0B46     		mov	r3, r1
 2218 0008 8346     		mov	fp, r0
 2219 000a 89B0     		sub	sp, sp, #36
 2220 000c 160A     		lsrs	r6, r2, #8
 2221 000e 150C     		lsrs	r5, r2, #16
 2222 0010 120E     		lsrs	r2, r2, #24
 2223 0012 0192     		str	r2, [sp, #4]
 2224 0014 8DF81C40 		strb	r4, [sp, #28]
 2225 0018 9DF80440 		ldrb	r4, [sp, #4]	@ zero_extendqisi2
 2226 001c 4FEA112C 		lsr	ip, r1, #8
 2227 0020 4FEA114E 		lsr	lr, r1, #16
 2228 0024 4FEA102A 		lsr	r10, r0, #8
 2229 0028 4FEA1049 		lsr	r9, r0, #16
 2230 002c 4FEA1068 		lsr	r8, r0, #24
 2231 0030 0F0E     		lsrs	r7, r1, #24
 2232 0032 8DF81830 		strb	r3, [sp, #24]
 2233 0036 05A9     		add	r1, sp, #20
 2234 0038 03AA     		add	r2, sp, #12
 2235 003a 0623     		movs	r3, #6
 2236 003c 1120     		movs	r0, #17
 2237 003e 8DF814B0 		strb	fp, [sp, #20]
 2238 0042 8DF815A0 		strb	r10, [sp, #21]
 2239 0046 8DF81690 		strb	r9, [sp, #22]
 2240 004a 8DF81780 		strb	r8, [sp, #23]
 2241 004e 8DF819C0 		strb	ip, [sp, #25]
 2242 0052 8DF81AE0 		strb	lr, [sp, #26]
 2243 0056 8DF81B70 		strb	r7, [sp, #27]
 2244 005a 8DF81D60 		strb	r6, [sp, #29]
 2245 005e 8DF81E50 		strb	r5, [sp, #30]
 2246 0062 8DF81F40 		strb	r4, [sp, #31]
 2247 0066 FFF7FEFF 		bl	execute_service
 2248 006a 09B0     		add	sp, sp, #36
 2249              		@ sp needed
 2250 006c BDE8F08F 		pop	{r4, r5, r6, r7, r8, r9, r10, fp, pc}
 2252              		.section	.text.MSS_SYS_ecc_get_base_point,"ax",%progbits
 2253              		.align	2
 2254              		.global	MSS_SYS_ecc_get_base_point
 2255              		.thumb
 2256              		.thumb_func
 2258              	MSS_SYS_ecc_get_base_point:
 2259              		@ args = 0, pretend = 0, frame = 96
 2260              		@ frame_needed = 0, uses_anonymous_args = 0
 2261 0000 30B5     		push	{r4, r5, lr}
 2262 0002 0546     		mov	r5, r0
 2263 0004 99B0     		sub	sp, sp, #100
 2264 0006 6024     		movs	r4, #96
 2265 0008 2246     		mov	r2, r4
 2266 000a 6846     		mov	r0, sp
 2267 000c 0449     		ldr	r1, .L317
 2268 000e FFF7FEFF 		bl	memcpy
 2269 0012 2846     		mov	r0, r5
 2270 0014 6946     		mov	r1, sp
 2271 0016 2246     		mov	r2, r4
 2272 0018 FFF7FEFF 		bl	memcpy
 2273 001c 19B0     		add	sp, sp, #100
 2274              		@ sp needed
 2275 001e 30BD     		pop	{r4, r5, pc}
 2276              	.L318:
 2277              		.align	2
 2278              	.L317:
 2279 0020 00000000 		.word	.LANCHOR19
 2281              		.section	.text.MSS_SYS_start_clock_monitor,"ax",%progbits
 2282              		.align	2
 2283              		.global	MSS_SYS_start_clock_monitor
 2284              		.thumb
 2285              		.thumb_func
 2287              	MSS_SYS_start_clock_monitor:
 2288              		@ args = 0, pretend = 0, frame = 8
 2289              		@ frame_needed = 0, uses_anonymous_args = 0
 2290 0000 F0B5     		push	{r4, r5, r6, r7, lr}
 2291 0002 184C     		ldr	r4, .L329
 2292 0004 87B0     		sub	sp, sp, #28
 2293              	.L320:
 2294 0006 2378     		ldrb	r3, [r4]	@ zero_extendqisi2
 2295 0008 164E     		ldr	r6, .L329
 2296 000a 03F0FF05 		and	r5, r3, #255
 2297 000e 002B     		cmp	r3, #0
 2298 0010 F9D1     		bne	.L320
 2299 0012 154A     		ldr	r2, .L329+4
 2300 0014 154F     		ldr	r7, .L329+8
 2301 0016 05AB     		add	r3, sp, #20
 2302 0018 4FF0010E 		mov	lr, #1
 2303 001c 0221     		movs	r1, #2
 2304 001e 0292     		str	r2, [sp, #8]
 2305 0020 0093     		str	r3, [sp]
 2306 0022 0191     		str	r1, [sp, #4]
 2307 0024 4FF01F0C 		mov	ip, #31
 2308 0028 86F800E0 		strb	lr, [r6]
 2309 002c 04A8     		add	r0, sp, #16
 2310 002e 2A46     		mov	r2, r5
 2311 0030 2B46     		mov	r3, r5
 2312 0032 3D80     		strh	r5, [r7]	@ movhi
 2313 0034 8DF811E0 		strb	lr, [sp, #17]
 2314 0038 8DF810C0 		strb	ip, [sp, #16]
 2315 003c FFF7FEFF 		bl	MSS_COMBLK_send_cmd
 2316              	.L321:
 2317 0040 2378     		ldrb	r3, [r4]	@ zero_extendqisi2
 2318 0042 002B     		cmp	r3, #0
 2319 0044 FCD1     		bne	.L321
 2320 0046 3B88     		ldrh	r3, [r7]
 2321 0048 9BB2     		uxth	r3, r3
 2322 004a 022B     		cmp	r3, #2
 2323 004c 02D0     		beq	.L328
 2324              	.L324:
 2325 004e C820     		movs	r0, #200
 2326              	.L322:
 2327 0050 07B0     		add	sp, sp, #28
 2328              		@ sp needed
 2329 0052 F0BD     		pop	{r4, r5, r6, r7, pc}
 2330              	.L328:
 2331 0054 9DF81430 		ldrb	r3, [sp, #20]	@ zero_extendqisi2
 2332 0058 1F2B     		cmp	r3, #31
 2333 005a F8D1     		bne	.L324
 2334 005c 9DF81500 		ldrb	r0, [sp, #21]	@ zero_extendqisi2
 2335 0060 F6E7     		b	.L322
 2336              	.L330:
 2337 0062 00BF     		.align	2
 2338              	.L329:
 2339 0064 00000000 		.word	.LANCHOR16
 2340 0068 00000000 		.word	request_completion_handler
 2341 006c 00000000 		.word	.LANCHOR17
 2343              		.section	.text.MSS_SYS_stop_clock_monitor,"ax",%progbits
 2344              		.align	2
 2345              		.global	MSS_SYS_stop_clock_monitor
 2346              		.thumb
 2347              		.thumb_func
 2349              	MSS_SYS_stop_clock_monitor:
 2350              		@ args = 0, pretend = 0, frame = 8
 2351              		@ frame_needed = 0, uses_anonymous_args = 0
 2352 0000 2DE9F041 		push	{r4, r5, r6, r7, r8, lr}
 2353 0004 1A4C     		ldr	r4, .L341
 2354 0006 86B0     		sub	sp, sp, #24
 2355              	.L332:
 2356 0008 2378     		ldrb	r3, [r4]	@ zero_extendqisi2
 2357 000a 194E     		ldr	r6, .L341
 2358 000c 03F0FF05 		and	r5, r3, #255
 2359 0010 002B     		cmp	r3, #0
 2360 0012 F9D1     		bne	.L332
 2361 0014 174A     		ldr	r2, .L341+4
 2362 0016 0227     		movs	r7, #2
 2363 0018 05AB     		add	r3, sp, #20
 2364 001a DFF85C80 		ldr	r8, .L341+8
 2365 001e 4FF0010C 		mov	ip, #1
 2366 0022 0292     		str	r2, [sp, #8]
 2367 0024 0093     		str	r3, [sp]
 2368 0026 4FF01F0E 		mov	lr, #31
 2369 002a 0197     		str	r7, [sp, #4]
 2370 002c 3946     		mov	r1, r7
 2371 002e 04A8     		add	r0, sp, #16
 2372 0030 2A46     		mov	r2, r5
 2373 0032 2B46     		mov	r3, r5
 2374 0034 86F800C0 		strb	ip, [r6]
 2375 0038 8DF81170 		strb	r7, [sp, #17]
 2376 003c A8F80050 		strh	r5, [r8]	@ movhi
 2377 0040 8DF810E0 		strb	lr, [sp, #16]
 2378 0044 FFF7FEFF 		bl	MSS_COMBLK_send_cmd
 2379              	.L333:
 2380 0048 2378     		ldrb	r3, [r4]	@ zero_extendqisi2
 2381 004a 002B     		cmp	r3, #0
 2382 004c FCD1     		bne	.L333
 2383 004e B8F80030 		ldrh	r3, [r8]
 2384 0052 9BB2     		uxth	r3, r3
 2385 0054 022B     		cmp	r3, #2
 2386 0056 03D0     		beq	.L340
 2387              	.L336:
 2388 0058 C820     		movs	r0, #200
 2389              	.L334:
 2390 005a 06B0     		add	sp, sp, #24
 2391              		@ sp needed
 2392 005c BDE8F081 		pop	{r4, r5, r6, r7, r8, pc}
 2393              	.L340:
 2394 0060 9DF81430 		ldrb	r3, [sp, #20]	@ zero_extendqisi2
 2395 0064 1F2B     		cmp	r3, #31
 2396 0066 F7D1     		bne	.L336
 2397 0068 9DF81500 		ldrb	r0, [sp, #21]	@ zero_extendqisi2
 2398 006c F5E7     		b	.L334
 2399              	.L342:
 2400 006e 00BF     		.align	2
 2401              	.L341:
 2402 0070 00000000 		.word	.LANCHOR16
 2403 0074 00000000 		.word	request_completion_handler
 2404 0078 00000000 		.word	.LANCHOR17
 2406              		.section	.text.MSS_SYS_enable_puf_power_down,"ax",%progbits
 2407              		.align	2
 2408              		.global	MSS_SYS_enable_puf_power_down
 2409              		.thumb
 2410              		.thumb_func
 2412              	MSS_SYS_enable_puf_power_down:
 2413              		@ args = 0, pretend = 0, frame = 8
 2414              		@ frame_needed = 0, uses_anonymous_args = 0
 2415 0000 2DE9F041 		push	{r4, r5, r6, r7, r8, lr}
 2416 0004 194C     		ldr	r4, .L353
 2417 0006 86B0     		sub	sp, sp, #24
 2418              	.L344:
 2419 0008 2378     		ldrb	r3, [r4]	@ zero_extendqisi2
 2420 000a 184E     		ldr	r6, .L353
 2421 000c 03F0FF05 		and	r5, r3, #255
 2422 0010 002B     		cmp	r3, #0
 2423 0012 F9D1     		bne	.L344
 2424 0014 164A     		ldr	r2, .L353+4
 2425 0016 174F     		ldr	r7, .L353+8
 2426 0018 05AB     		add	r3, sp, #20
 2427 001a 0221     		movs	r1, #2
 2428 001c 4FF00108 		mov	r8, #1
 2429 0020 0292     		str	r2, [sp, #8]
 2430 0022 0093     		str	r3, [sp]
 2431 0024 0191     		str	r1, [sp, #4]
 2432 0026 4FF01F0C 		mov	ip, #31
 2433 002a 4FF0040E 		mov	lr, #4
 2434 002e 86F80080 		strb	r8, [r6]
 2435 0032 04A8     		add	r0, sp, #16
 2436 0034 2A46     		mov	r2, r5
 2437 0036 2B46     		mov	r3, r5
 2438 0038 3D80     		strh	r5, [r7]	@ movhi
 2439 003a 8DF810C0 		strb	ip, [sp, #16]
 2440 003e 8DF811E0 		strb	lr, [sp, #17]
 2441 0042 FFF7FEFF 		bl	MSS_COMBLK_send_cmd
 2442              	.L345:
 2443 0046 2378     		ldrb	r3, [r4]	@ zero_extendqisi2
 2444 0048 002B     		cmp	r3, #0
 2445 004a FCD1     		bne	.L345
 2446 004c 3B88     		ldrh	r3, [r7]
 2447 004e 9BB2     		uxth	r3, r3
 2448 0050 022B     		cmp	r3, #2
 2449 0052 03D0     		beq	.L352
 2450              	.L348:
 2451 0054 C820     		movs	r0, #200
 2452              	.L346:
 2453 0056 06B0     		add	sp, sp, #24
 2454              		@ sp needed
 2455 0058 BDE8F081 		pop	{r4, r5, r6, r7, r8, pc}
 2456              	.L352:
 2457 005c 9DF81430 		ldrb	r3, [sp, #20]	@ zero_extendqisi2
 2458 0060 1F2B     		cmp	r3, #31
 2459 0062 F7D1     		bne	.L348
 2460 0064 9DF81500 		ldrb	r0, [sp, #21]	@ zero_extendqisi2
 2461 0068 F5E7     		b	.L346
 2462              	.L354:
 2463 006a 00BF     		.align	2
 2464              	.L353:
 2465 006c 00000000 		.word	.LANCHOR16
 2466 0070 00000000 		.word	request_completion_handler
 2467 0074 00000000 		.word	.LANCHOR17
 2469              		.section	.text.MSS_SYS_disable_puf_power_down,"ax",%progbits
 2470              		.align	2
 2471              		.global	MSS_SYS_disable_puf_power_down
 2472              		.thumb
 2473              		.thumb_func
 2475              	MSS_SYS_disable_puf_power_down:
 2476              		@ args = 0, pretend = 0, frame = 8
 2477              		@ frame_needed = 0, uses_anonymous_args = 0
 2478 0000 2DE9F041 		push	{r4, r5, r6, r7, r8, lr}
 2479 0004 194C     		ldr	r4, .L365
 2480 0006 86B0     		sub	sp, sp, #24
 2481              	.L356:
 2482 0008 2378     		ldrb	r3, [r4]	@ zero_extendqisi2
 2483 000a 184E     		ldr	r6, .L365
 2484 000c 03F0FF05 		and	r5, r3, #255
 2485 0010 002B     		cmp	r3, #0
 2486 0012 F9D1     		bne	.L356
 2487 0014 164A     		ldr	r2, .L365+4
 2488 0016 174F     		ldr	r7, .L365+8
 2489 0018 05AB     		add	r3, sp, #20
 2490 001a 0221     		movs	r1, #2
 2491 001c 4FF00108 		mov	r8, #1
 2492 0020 0292     		str	r2, [sp, #8]
 2493 0022 0093     		str	r3, [sp]
 2494 0024 0191     		str	r1, [sp, #4]
 2495 0026 4FF01F0C 		mov	ip, #31
 2496 002a 4FF0080E 		mov	lr, #8
 2497 002e 86F80080 		strb	r8, [r6]
 2498 0032 04A8     		add	r0, sp, #16
 2499 0034 2A46     		mov	r2, r5
 2500 0036 2B46     		mov	r3, r5
 2501 0038 3D80     		strh	r5, [r7]	@ movhi
 2502 003a 8DF810C0 		strb	ip, [sp, #16]
 2503 003e 8DF811E0 		strb	lr, [sp, #17]
 2504 0042 FFF7FEFF 		bl	MSS_COMBLK_send_cmd
 2505              	.L357:
 2506 0046 2378     		ldrb	r3, [r4]	@ zero_extendqisi2
 2507 0048 002B     		cmp	r3, #0
 2508 004a FCD1     		bne	.L357
 2509 004c 3B88     		ldrh	r3, [r7]
 2510 004e 9BB2     		uxth	r3, r3
 2511 0050 022B     		cmp	r3, #2
 2512 0052 03D0     		beq	.L364
 2513              	.L360:
 2514 0054 C820     		movs	r0, #200
 2515              	.L358:
 2516 0056 06B0     		add	sp, sp, #24
 2517              		@ sp needed
 2518 0058 BDE8F081 		pop	{r4, r5, r6, r7, r8, pc}
 2519              	.L364:
 2520 005c 9DF81430 		ldrb	r3, [sp, #20]	@ zero_extendqisi2
 2521 0060 1F2B     		cmp	r3, #31
 2522 0062 F7D1     		bne	.L360
 2523 0064 9DF81500 		ldrb	r0, [sp, #21]	@ zero_extendqisi2
 2524 0068 F5E7     		b	.L358
 2525              	.L366:
 2526 006a 00BF     		.align	2
 2527              	.L365:
 2528 006c 00000000 		.word	.LANCHOR16
 2529 0070 00000000 		.word	request_completion_handler
 2530 0074 00000000 		.word	.LANCHOR17
 2532              		.section	.text.MSS_SYS_clear_lock_parity,"ax",%progbits
 2533              		.align	2
 2534              		.global	MSS_SYS_clear_lock_parity
 2535              		.thumb
 2536              		.thumb_func
 2538              	MSS_SYS_clear_lock_parity:
 2539              		@ args = 0, pretend = 0, frame = 8
 2540              		@ frame_needed = 0, uses_anonymous_args = 0
 2541 0000 2DE9F041 		push	{r4, r5, r6, r7, r8, lr}
 2542 0004 194C     		ldr	r4, .L377
 2543 0006 86B0     		sub	sp, sp, #24
 2544              	.L368:
 2545 0008 2378     		ldrb	r3, [r4]	@ zero_extendqisi2
 2546 000a 184E     		ldr	r6, .L377
 2547 000c 03F0FF05 		and	r5, r3, #255
 2548 0010 002B     		cmp	r3, #0
 2549 0012 F9D1     		bne	.L368
 2550 0014 164A     		ldr	r2, .L377+4
 2551 0016 174F     		ldr	r7, .L377+8
 2552 0018 05AB     		add	r3, sp, #20
 2553 001a 4FF0100E 		mov	lr, #16
 2554 001e 0221     		movs	r1, #2
 2555 0020 4FF00108 		mov	r8, #1
 2556 0024 0292     		str	r2, [sp, #8]
 2557 0026 0093     		str	r3, [sp]
 2558 0028 0191     		str	r1, [sp, #4]
 2559 002a 4FF01F0C 		mov	ip, #31
 2560 002e 86F80080 		strb	r8, [r6]
 2561 0032 0DEB0E00 		add	r0, sp, lr
 2562 0036 2A46     		mov	r2, r5
 2563 0038 2B46     		mov	r3, r5
 2564 003a 3D80     		strh	r5, [r7]	@ movhi
 2565 003c 8DF810C0 		strb	ip, [sp, #16]
 2566 0040 8DF811E0 		strb	lr, [sp, #17]
 2567 0044 FFF7FEFF 		bl	MSS_COMBLK_send_cmd
 2568              	.L369:
 2569 0048 2378     		ldrb	r3, [r4]	@ zero_extendqisi2
 2570 004a 002B     		cmp	r3, #0
 2571 004c FCD1     		bne	.L369
 2572 004e 3B88     		ldrh	r3, [r7]
 2573 0050 9BB2     		uxth	r3, r3
 2574 0052 022B     		cmp	r3, #2
 2575 0054 03D0     		beq	.L376
 2576              	.L372:
 2577 0056 C820     		movs	r0, #200
 2578              	.L370:
 2579 0058 06B0     		add	sp, sp, #24
 2580              		@ sp needed
 2581 005a BDE8F081 		pop	{r4, r5, r6, r7, r8, pc}
 2582              	.L376:
 2583 005e 9DF81430 		ldrb	r3, [sp, #20]	@ zero_extendqisi2
 2584 0062 1F2B     		cmp	r3, #31
 2585 0064 F7D1     		bne	.L372
 2586 0066 9DF81500 		ldrb	r0, [sp, #21]	@ zero_extendqisi2
 2587 006a F5E7     		b	.L370
 2588              	.L378:
 2589              		.align	2
 2590              	.L377:
 2591 006c 00000000 		.word	.LANCHOR16
 2592 0070 00000000 		.word	request_completion_handler
 2593 0074 00000000 		.word	.LANCHOR17
 2595              		.section	.text.MSS_SYS_clear_mesh_short,"ax",%progbits
 2596              		.align	2
 2597              		.global	MSS_SYS_clear_mesh_short
 2598              		.thumb
 2599              		.thumb_func
 2601              	MSS_SYS_clear_mesh_short:
 2602              		@ args = 0, pretend = 0, frame = 8
 2603              		@ frame_needed = 0, uses_anonymous_args = 0
 2604 0000 2DE9F041 		push	{r4, r5, r6, r7, r8, lr}
 2605 0004 194C     		ldr	r4, .L389
 2606 0006 86B0     		sub	sp, sp, #24
 2607              	.L380:
 2608 0008 2378     		ldrb	r3, [r4]	@ zero_extendqisi2
 2609 000a 184E     		ldr	r6, .L389
 2610 000c 03F0FF05 		and	r5, r3, #255
 2611 0010 002B     		cmp	r3, #0
 2612 0012 F9D1     		bne	.L380
 2613 0014 164A     		ldr	r2, .L389+4
 2614 0016 174F     		ldr	r7, .L389+8
 2615 0018 05AB     		add	r3, sp, #20
 2616 001a 0221     		movs	r1, #2
 2617 001c 4FF00108 		mov	r8, #1
 2618 0020 0292     		str	r2, [sp, #8]
 2619 0022 0093     		str	r3, [sp]
 2620 0024 0191     		str	r1, [sp, #4]
 2621 0026 4FF01F0C 		mov	ip, #31
 2622 002a 4FF0200E 		mov	lr, #32
 2623 002e 86F80080 		strb	r8, [r6]
 2624 0032 04A8     		add	r0, sp, #16
 2625 0034 2A46     		mov	r2, r5
 2626 0036 2B46     		mov	r3, r5
 2627 0038 3D80     		strh	r5, [r7]	@ movhi
 2628 003a 8DF810C0 		strb	ip, [sp, #16]
 2629 003e 8DF811E0 		strb	lr, [sp, #17]
 2630 0042 FFF7FEFF 		bl	MSS_COMBLK_send_cmd
 2631              	.L381:
 2632 0046 2378     		ldrb	r3, [r4]	@ zero_extendqisi2
 2633 0048 002B     		cmp	r3, #0
 2634 004a FCD1     		bne	.L381
 2635 004c 3B88     		ldrh	r3, [r7]
 2636 004e 9BB2     		uxth	r3, r3
 2637 0050 022B     		cmp	r3, #2
 2638 0052 03D0     		beq	.L388
 2639              	.L384:
 2640 0054 C820     		movs	r0, #200
 2641              	.L382:
 2642 0056 06B0     		add	sp, sp, #24
 2643              		@ sp needed
 2644 0058 BDE8F081 		pop	{r4, r5, r6, r7, r8, pc}
 2645              	.L388:
 2646 005c 9DF81430 		ldrb	r3, [sp, #20]	@ zero_extendqisi2
 2647 0060 1F2B     		cmp	r3, #31
 2648 0062 F7D1     		bne	.L384
 2649 0064 9DF81500 		ldrb	r0, [sp, #21]	@ zero_extendqisi2
 2650 0068 F5E7     		b	.L382
 2651              	.L390:
 2652 006a 00BF     		.align	2
 2653              	.L389:
 2654 006c 00000000 		.word	.LANCHOR16
 2655 0070 00000000 		.word	request_completion_handler
 2656 0074 00000000 		.word	.LANCHOR17
 2658              		.global	g_isp_page_read_handler
 2659              		.global	g_isp_completion_handler
 2660              		.global	ind
 2661              		.global	divisor
 2662              		.global	div32_seq
 2663              		.global	div16_seq
 2664              		.global	div8_seq
 2665              		.global	div4_seq
 2666              		.global	div2_seq
 2667              		.global	div1_seq
 2668              		.section	.rodata
 2669              		.align	2
 2670              		.set	.LANCHOR19,. + 0
 2671              	.LC0:
 2672 0000 AA       		.byte	-86
 2673 0001 87       		.byte	-121
 2674 0002 CA       		.byte	-54
 2675 0003 22       		.byte	34
 2676 0004 BE       		.byte	-66
 2677 0005 8B       		.byte	-117
 2678 0006 05       		.byte	5
 2679 0007 37       		.byte	55
 2680 0008 8E       		.byte	-114
 2681 0009 B1       		.byte	-79
 2682 000a C7       		.byte	-57
 2683 000b 1E       		.byte	30
 2684 000c F3       		.byte	-13
 2685 000d 20       		.byte	32
 2686 000e AD       		.byte	-83
 2687 000f 74       		.byte	116
 2688 0010 6E       		.byte	110
 2689 0011 1D       		.byte	29
 2690 0012 3B       		.byte	59
 2691 0013 62       		.byte	98
 2692 0014 8B       		.byte	-117
 2693 0015 A7       		.byte	-89
 2694 0016 9B       		.byte	-101
 2695 0017 98       		.byte	-104
 2696 0018 59       		.byte	89
 2697 0019 F7       		.byte	-9
 2698 001a 41       		.byte	65
 2699 001b E0       		.byte	-32
 2700 001c 82       		.byte	-126
 2701 001d 54       		.byte	84
 2702 001e 2A       		.byte	42
 2703 001f 38       		.byte	56
 2704 0020 55       		.byte	85
 2705 0021 02       		.byte	2
 2706 0022 F2       		.byte	-14
 2707 0023 5D       		.byte	93
 2708 0024 BF       		.byte	-65
 2709 0025 55       		.byte	85
 2710 0026 29       		.byte	41
 2711 0027 6C       		.byte	108
 2712 0028 3A       		.byte	58
 2713 0029 54       		.byte	84
 2714 002a 5E       		.byte	94
 2715 002b 38       		.byte	56
 2716 002c 72       		.byte	114
 2717 002d 76       		.byte	118
 2718 002e 0A       		.byte	10
 2719 002f B7       		.byte	-73
 2720 0030 36       		.byte	54
 2721 0031 17       		.byte	23
 2722 0032 DE       		.byte	-34
 2723 0033 4A       		.byte	74
 2724 0034 96       		.byte	-106
 2725 0035 26       		.byte	38
 2726 0036 2C       		.byte	44
 2727 0037 6F       		.byte	111
 2728 0038 5D       		.byte	93
 2729 0039 9E       		.byte	-98
 2730 003a 98       		.byte	-104
 2731 003b BF       		.byte	-65
 2732 003c 92       		.byte	-110
 2733 003d 92       		.byte	-110
 2734 003e DC       		.byte	-36
 2735 003f 29       		.byte	41
 2736 0040 F8       		.byte	-8
 2737 0041 F4       		.byte	-12
 2738 0042 1D       		.byte	29
 2739 0043 BD       		.byte	-67
 2740 0044 28       		.byte	40
 2741 0045 9A       		.byte	-102
 2742 0046 14       		.byte	20
 2743 0047 7C       		.byte	124
 2744 0048 E9       		.byte	-23
 2745 0049 DA       		.byte	-38
 2746 004a 31       		.byte	49
 2747 004b 13       		.byte	19
 2748 004c B5       		.byte	-75
 2749 004d F0       		.byte	-16
 2750 004e B8       		.byte	-72
 2751 004f C0       		.byte	-64
 2752 0050 0A       		.byte	10
 2753 0051 60       		.byte	96
 2754 0052 B1       		.byte	-79
 2755 0053 CE       		.byte	-50
 2756 0054 1D       		.byte	29
 2757 0055 7E       		.byte	126
 2758 0056 81       		.byte	-127
 2759 0057 9D       		.byte	-99
 2760 0058 7A       		.byte	122
 2761 0059 43       		.byte	67
 2762 005a 1D       		.byte	29
 2763 005b 7C       		.byte	124
 2764 005c 90       		.byte	-112
 2765 005d EA       		.byte	-22
 2766 005e 0E       		.byte	14
 2767 005f 5F       		.byte	95
 2768              		.section	.bss.g_event_handler,"aw",%nobits
 2769              		.align	2
 2770              		.set	.LANCHOR7,. + 0
 2773              	g_event_handler:
 2774 0000 00000000 		.space	4
 2775              		.section	.bss.g_request_in_progress,"aw",%nobits
 2776              		.set	.LANCHOR16,. + 0
 2779              	g_request_in_progress:
 2780 0000 00       		.space	1
 2781              		.section	.data.div4_seq,"aw",%progbits
 2782              		.align	2
 2783              		.set	.LANCHOR2,. + 0
 2786              	div4_seq:
 2787 0000 02       		.byte	2
 2788 0001 03       		.byte	3
 2789 0002 01       		.byte	1
 2790 0003 05       		.byte	5
 2791 0004 07       		.byte	7
 2792              		.section	.data.wait_for_clock_switch,"aw",%progbits
 2793              		.set	.LANCHOR10,. + 0
 2796              	wait_for_clock_switch:
 2797 0000 01       		.byte	1
 2798              		.section	.data.div32_seq,"aw",%progbits
 2799              		.align	2
 2800              		.set	.LANCHOR5,. + 0
 2803              	div32_seq:
 2804 0000 06       		.byte	6
 2805 0001 07       		.byte	7
 2806              		.section	.bss.ind,"aw",%nobits
 2809              	ind:
 2810 0000 00       		.space	1
 2811              		.section	.bss.g_isp_completion_handler,"aw",%nobits
 2812              		.align	2
 2813              		.set	.LANCHOR15,. + 0
 2816              	g_isp_completion_handler:
 2817 0000 00000000 		.space	4
 2818              		.section	.bss.g_isp_page_read_handler,"aw",%nobits
 2819              		.align	2
 2820              		.set	.LANCHOR12,. + 0
 2823              	g_isp_page_read_handler:
 2824 0000 00000000 		.space	4
 2825              		.section	.data.div16_seq,"aw",%progbits
 2826              		.align	2
 2827              		.set	.LANCHOR4,. + 0
 2830              	div16_seq:
 2831 0000 05       		.byte	5
 2832 0001 07       		.byte	7
 2833              		.section	.bss.g_response,"aw",%nobits
 2834              		.align	2
 2835              		.set	.LANCHOR8,. + 0
 2838              	g_response:
 2839 0000 0000     		.space	2
 2840              		.section	.bss.divisor,"aw",%nobits
 2841              		.align	2
 2842              		.set	.LANCHOR6,. + 0
 2845              	divisor:
 2846 0000 00000000 		.space	16
 2846      00000000 
 2846      00000000 
 2846      00000000 
 2847              		.section	.bss.g_last_response_length,"aw",%nobits
 2848              		.align	1
 2849              		.set	.LANCHOR17,. + 0
 2852              	g_last_response_length:
 2853 0000 0000     		.space	2
 2854              		.section	.bss.g_mode,"aw",%nobits
 2855              		.set	.LANCHOR11,. + 0
 2858              	g_mode:
 2859 0000 00       		.space	1
 2860              		.section	.data.div1_seq,"aw",%progbits
 2861              		.align	2
 2862              		.set	.LANCHOR0,. + 0
 2865              	div1_seq:
 2866 0000 00       		.byte	0
 2867 0001 01       		.byte	1
 2868 0002 05       		.byte	5
 2869 0003 07       		.byte	7
 2870              		.section	.data.g_initial_envm_cr,"aw",%progbits
 2871              		.align	2
 2872              		.set	.LANCHOR13,. + 0
 2875              	g_initial_envm_cr:
 2876 0000 F11F0000 		.word	8177
 2877              		.section	.data.div8_seq,"aw",%progbits
 2878              		.align	2
 2879              		.set	.LANCHOR3,. + 0
 2882              	div8_seq:
 2883 0000 04       		.byte	4
 2884 0001 06       		.byte	6
 2885 0002 07       		.byte	7
 2886              		.section	.data.div2_seq,"aw",%progbits
 2887              		.align	2
 2888              		.set	.LANCHOR1,. + 0
 2891              	div2_seq:
 2892 0000 01       		.byte	1
 2893 0001 05       		.byte	5
 2894 0002 07       		.byte	7
 2895              		.section	.bss.g_isp_response,"aw",%nobits
 2896              		.align	2
 2897              		.set	.LANCHOR18,. + 0
 2900              	g_isp_response:
 2901 0000 0000     		.space	2
 2902              		.section	.bss.g_initial_mssddr_facc1_cr,"aw",%nobits
 2903              		.align	2
 2904              		.set	.LANCHOR9,. + 0
 2907              	g_initial_mssddr_facc1_cr:
 2908 0000 00000000 		.space	4
 2909              		.section	.bss.g_initial_mssddr_facc2_cr,"aw",%nobits
 2910              		.align	2
 2911              		.set	.LANCHOR14,. + 0
 2914              	g_initial_mssddr_facc2_cr:
 2915 0000 00000000 		.space	4
 2916              		.ident	"GCC: (GNU Tools for ARM Embedded Processors) 4.9.3 20150529 (release) [ARM/embedded-4_9-br