   1              		.syntax unified
   2              		.cpu cortex-m3
   3              		.fpu softvfp
   4              		.eabi_attribute 20, 1
   5              		.eabi_attribute 21, 1
   6              		.eabi_attribute 23, 3
   7              		.eabi_attribute 24, 1
   8              		.eabi_attribute 25, 1
   9              		.eabi_attribute 26, 1
  10              		.eabi_attribute 30, 2
  11              		.eabi_attribute 34, 1
  12              		.eabi_attribute 18, 4
  13              		.thumb
  14              		.file	"run_program.c"
  15              		.section	.text.copy_image_to_esram,"ax",%progbits
  16              		.align	2
  17              		.global	copy_image_to_esram
  18              		.thumb
  19              		.thumb_func
  21              	copy_image_to_esram:
  22              		@ args = 0, pretend = 0, frame = 0
  23              		@ frame_needed = 0, uses_anonymous_args = 0
  24              		@ link register save eliminated.
  25 0000 044A     		ldr	r2, .L5
  26 0002 054B     		ldr	r3, .L5+4
  27 0004 0548     		ldr	r0, .L5+8
  28              	.L2:
  29 0006 53F8041B 		ldr	r1, [r3], #4
  30 000a 8342     		cmp	r3, r0
  31 000c 42F8041F 		str	r1, [r2, #4]!
  32 0010 F9D1     		bne	.L2
  33 0012 7047     		bx	lr
  34              	.L6:
  35              		.align	2
  36              	.L5:
  37 0014 FCFFFF1F 		.word	536870908
  38 0018 00300060 		.word	1610625024
  39 001c 00900060 		.word	1610649600
  41              		.section	.text.remap_user_code_eSRAM_0,"ax",%progbits
  42              		.align	2
  43              		.global	remap_user_code_eSRAM_0
  44              		.thumb
  45              		.thumb_func
  47              	remap_user_code_eSRAM_0:
  48              		@ args = 0, pretend = 0, frame = 0
  49              		@ frame_needed = 0, uses_anonymous_args = 0
  50 0000 4FF00052 		mov	r2, #536870912
  51 0004 10B5     		push	{r4, lr}
  52 0006 1368     		ldr	r3, [r2]
  53              	@ 470 "C:\Microsemi\SoftConsole_v4.0\CMSIS\V4.3\Include/core_cmFunc.h" 1
  54 0008 83F30888 		MSR msp, r3
  55              	
  56              	@ 0 "" 2
  57              		.thumb
  58 000c 0549     		ldr	r1, .L10
  59 000e 0648     		ldr	r0, .L10+4
  60 0010 0B68     		ldr	r3, [r1]
  61 0012 064C     		ldr	r4, .L10+8
  62 0014 43F00103 		orr	r3, r3, #1
  63 0018 0B60     		str	r3, [r1]
  64 001a 2368     		ldr	r3, [r4]
  65 001c 8260     		str	r2, [r0, #8]
  66 001e 9847     		blx	r3
  67              	.L8:
  68 0020 FEE7     		b	.L8
  69              	.L11:
  70 0022 00BF     		.align	2
  71              	.L10:
  72 0024 00800340 		.word	1073971200
  73 0028 00ED00E0 		.word	-536810240
  74 002c 04000020 		.word	536870916
  76              		.section	.text.run_iap,"ax",%progbits
  77              		.align	2
  78              		.global	run_iap
  79              		.thumb
  80              		.thumb_func
  82              	run_iap:
  83              		@ Volatile: function does not return.
  84              		@ args = 0, pretend = 0, frame = 0
  85              		@ frame_needed = 0, uses_anonymous_args = 0
  86 0000 08B5     		push	{r3, lr}
  87 0002 054A     		ldr	r2, .L16
  88 0004 054B     		ldr	r3, .L16+4
  89 0006 0648     		ldr	r0, .L16+8
  90              	.L13:
  91 0008 53F8041B 		ldr	r1, [r3], #4
  92 000c 8342     		cmp	r3, r0
  93 000e 42F8041F 		str	r1, [r2, #4]!
  94 0012 F9D1     		bne	.L13
  95 0014 FFF7FEFF 		bl	remap_user_code_eSRAM_0
  96              	.L17:
  97              		.align	2
  98              	.L16:
  99 0018 FCFFFF1F 		.word	536870908
 100 001c 00300060 		.word	1610625024
 101 0020 00900060 		.word	1610649600
 103              		.section	.text.run_application,"ax",%progbits
 104              		.align	2
 105              		.global	run_application
 106              		.thumb
 107              		.thumb_func
 109              	run_application:
 110              		@ args = 0, pretend = 0, frame = 0
 111              		@ frame_needed = 0, uses_anonymous_args = 0
 112 0000 08B5     		push	{r3, lr}
 113 0002 4FF41043 		mov	r3, #36864
 114 0006 1A68     		ldr	r2, [r3]
 115              	@ 470 "C:\Microsemi\SoftConsole_v4.0\CMSIS\V4.3\Include/core_cmFunc.h" 1
 116 0008 82F30888 		MSR msp, r2
 117              	
 118              	@ 0 "" 2
 119              		.thumb
 120 000c 49F20402 		movw	r2, #36868
 121 0010 0249     		ldr	r1, .L21
 122 0012 1268     		ldr	r2, [r2]
 123 0014 8B60     		str	r3, [r1, #8]
 124 0016 9047     		blx	r2
 125              	.L19:
 126 0018 FEE7     		b	.L19
 127              	.L22:
 128 001a 00BF     		.align	2
 129              	.L21:
 130 001c 00ED00E0 		.word	-536810240
 132              		.ident	"GCC: (GNU Tools for ARM Embedded Processors) 4.9.3 20150529 (release) [ARM/embedded-4_9-br